libnymea-zigbee1.so.1 libnymea-zigbee1 #MINVER#
 _Z11dcZigbeeApsv@Base 0.1.4
 _Z12dcZigbeeNodev@Base 0.1.4
 _Z15dcZigbeeClusterv@Base 0.1.4
 _Z15dcZigbeeNetworkv@Base 0.1.4
 _Z16dcZigbeeEndpointv@Base 0.1.4
 _Z17dcZigbeeInterfacev@Base 0.1.4
 _Z18dcZigbeeControllerv@Base 0.1.4
 _Z20dcZigbeeDeviceObjectv@Base 0.1.4
 _Z22dcZigbeeAdapterMonitorv@Base 0.1.4
 _Z22dcZigbeeClusterLibraryv@Base 0.1.4
 _Z23dcZigbeeControllerDebugv@Base 0.1.4
 _Z23dcZigbeeNetworkDatabasev@Base 0.1.4
 _Z24dcZigbeeInterfaceTrafficv@Base 0.1.4
 _ZN10ZigbeeAdpu11qt_metacallEN11QMetaObject4CallEiPPv@Base 0.1.4
 _ZN10ZigbeeAdpu11qt_metacastEPKc@Base 0.1.4
 _ZN10ZigbeeAdpu15setFrameControlENS_12FrameControlE@Base 0.1.4
 _ZN10ZigbeeAdpu16staticMetaObjectE@Base 0.1.4
 _ZN10ZigbeeAdpu20readFrameControlByteEh@Base 0.1.4
 _ZN10ZigbeeAdpu21buildFrameControlByteENS_12FrameControlE@Base 0.1.4
 _ZN10ZigbeeAdpuC1EP7QObject@Base 0.1.4
 _ZN10ZigbeeAdpuC2EP7QObject@Base 0.1.4
 _ZN10ZigbeeNode10lqiChangedEh@Base 0.1.4
 _ZN10ZigbeeNode11qt_metacallEN11QMetaObject4CallEiPPv@Base 0.1.4
 _ZN10ZigbeeNode11qt_metacastEPKc@Base 0.1.4
 _ZN10ZigbeeNode12clusterAddedEP13ZigbeeCluster@Base 0.1.4
 _ZN10ZigbeeNode12initEndpointEh@Base 0.1.4
 _ZN10ZigbeeNode12setReachableEb@Base 0.1.4
 _ZN10ZigbeeNode12stateChangedENS_5StateE@Base 0.1.4
 _ZN10ZigbeeNode13initEndpointsEv@Base 0.1.4
 _ZN10ZigbeeNode14versionChangedERK7QString@Base 0.1.4
 _ZN10ZigbeeNode15lastSeenChangedERK9QDateTime@Base 0.1.4
 _ZN10ZigbeeNode16initBasicClusterEv@Base 0.1.4
 _ZN10ZigbeeNode16modelNameChangedERK7QString@Base 0.1.4
 _ZN10ZigbeeNode16reachableChangedEb@Base 0.1.4
 _ZN10ZigbeeNode16staticMetaObjectE@Base 0.1.4
 _ZN10ZigbeeNode17removeAllBindingsEv@Base 0.1.4
 _ZN10ZigbeeNode17removeNextBindingEP11ZigbeeReply@Base 0.1.4
 _ZN10ZigbeeNode18initNodeDescriptorEv@Base 0.1.4
 _ZN10ZigbeeNode19initPowerDescriptorEv@Base 0.1.4
 _ZN10ZigbeeNode19readModelIdentifierEP18ZigbeeClusterBasic@Base 0.1.4
 _ZN10ZigbeeNode19readSoftwareBuildIdEP18ZigbeeClusterBasic@Base 0.1.4
 _ZN10ZigbeeNode19shortAddressChangedEt@Base 0.1.4
 _ZN10ZigbeeNode19startInitializationEv@Base 0.1.4
 _ZN10ZigbeeNode20handleDataIndicationERKN6Zigbee19ApsdeDataIndicationE@Base 0.1.4
 _ZN10ZigbeeNode20readManufacturerNameEP18ZigbeeClusterBasic@Base 0.1.4
 _ZN10ZigbeeNode21setupEndpointInternalEP18ZigbeeNodeEndpoint@Base 0.1.4
 _ZN10ZigbeeNode23manufacturerNameChangedERK7QString@Base 0.1.4
 _ZN10ZigbeeNode23readBindingTableEntriesEv@Base 0.1.4
 _ZN10ZigbeeNode24nodeInitializationFailedEv@Base 0.1.4
 _ZN10ZigbeeNode26bindingTableRecordsChangedEv@Base 0.1.4
 _ZN10ZigbeeNode31endpointClusterAttributeChangedEP18ZigbeeNodeEndpointP13ZigbeeClusterRK22ZigbeeClusterAttribute@Base 0.1.4
 _ZN10ZigbeeNode36handleZigbeeClusterLibraryIndicationERKN6Zigbee19ApsdeDataIndicationE@Base 0.1.4
 _ZN10ZigbeeNode8setStateENS_5StateE@Base 0.1.4
 _ZN10ZigbeeNodeC1EP13ZigbeeNetworktRK13ZigbeeAddressP7QObject@Base 0.1.4
 _ZN10ZigbeeNodeC2EP13ZigbeeNetworktRK13ZigbeeAddressP7QObject@Base 0.1.4
 _ZN11ZigbeeReply11finishReplyENS_5ErrorE@Base 0.1.4
 _ZN11ZigbeeReply11qt_metacallEN11QMetaObject4CallEiPPv@Base 0.1.4
 _ZN11ZigbeeReply11qt_metacastEPKc@Base 0.1.4
 _ZN11ZigbeeReply16staticMetaObjectE@Base 0.1.4
 _ZN11ZigbeeReply8finishedEv@Base 0.1.4
 _ZN11ZigbeeReplyC1EP7QObject@Base 0.1.4
 _ZN11ZigbeeReplyC2EP7QObject@Base 0.1.4
 _ZN11ZigbeeUtils13checkBitUint8ERKhRKi@Base 0.1.4
 _ZN11ZigbeeUtils14checkBitUint16ERKtRKi@Base 0.1.4
 _ZN11ZigbeeUtils16convertColorToXYERK6QColor@Base 0.1.4
 _ZN11ZigbeeUtils16convertXYToColorERK7QPointF@Base 0.1.4
 _ZN11ZigbeeUtils16convertXYToColorEtt@Base 0.1.4
 _ZN11ZigbeeUtils16staticMetaObjectE@Base 0.1.4
 _ZN11ZigbeeUtils17clusterIdToStringERKN20ZigbeeClusterLibrary9ClusterIdE@Base 0.1.4
 _ZN11ZigbeeUtils17profileIdToStringERKN6Zigbee13ZigbeeProfileE@Base 0.1.4
 _ZN11ZigbeeUtils19convertColorToXYIntERK6QColor@Base 0.1.4
 _ZN11ZigbeeUtils19generateRandomPanIdEv@Base 0.1.4
 _ZN11ZigbeeUtils20zigbeeStatusToStringEh@Base 0.1.4
 _ZN11ZigbeeUtils22convertByteToHexStringERKh@Base 0.1.4
 _ZN11ZigbeeUtils24convertByteArrayToUint16ERK10QByteArray@Base 0.1.4
 _ZN11ZigbeeUtils24convertByteArrayToUint64ERK10QByteArray@Base 0.1.4
 _ZN11ZigbeeUtils24convertUint16ToHexStringERKt@Base 0.1.4
 _ZN11ZigbeeUtils24convertUint32ToHexStringERKj@Base 0.1.4
 _ZN11ZigbeeUtils24convertUint64ToHexStringERKy@Base 0.1.4
 _ZN11ZigbeeUtils26convertBitArrayToByteArrayERK9QBitArray@Base 0.1.4
 _ZN11ZigbeeUtils26convertByteArrayToBitArrayERK10QByteArray@Base 0.1.4
 _ZN11ZigbeeUtils27convertByteArrayToHexStringERK10QByteArray@Base 0.1.4
 _ZN11ZigbeeUtils36interpolateColorFromColorTemperatureEiii@Base 0.1.4
 _ZN13ZigbeeAddress5clearEv@Base 0.1.4
 _ZN13ZigbeeAddressC1ERK7QString@Base 0.1.4
 _ZN13ZigbeeAddressC1ERKS_@Base 0.1.4
 _ZN13ZigbeeAddressC1Ev@Base 0.1.4
 _ZN13ZigbeeAddressC1Ey@Base 0.1.4
 _ZN13ZigbeeAddressC2ERK7QString@Base 0.1.4
 _ZN13ZigbeeAddressC2ERKS_@Base 0.1.4
 _ZN13ZigbeeAddressC2Ev@Base 0.1.4
 _ZN13ZigbeeAddressC2Ey@Base 0.1.4
 _ZN13ZigbeeAddressaSERKS_@Base 0.1.4
 _ZN13ZigbeeCluster11qt_metacallEN11QMetaObject4CallEiPPv@Base 0.1.4
 _ZN13ZigbeeCluster11qt_metacastEPKc@Base 0.1.4
 _ZN13ZigbeeCluster12setAttributeERK22ZigbeeClusterAttribute@Base 0.1.4
 _ZN13ZigbeeCluster14finishZclReplyEP18ZigbeeClusterReply@Base 0.1.4
 _ZN13ZigbeeCluster14readAttributesE5QListItEt@Base 0.1.4
 _ZN13ZigbeeCluster15writeAttributesE5QListIN20ZigbeeClusterLibrary20WriteAttributeRecordEEt@Base 0.1.4
 _ZN13ZigbeeCluster16attributeChangedERK22ZigbeeClusterAttribute@Base 0.1.4
 _ZN13ZigbeeCluster16staticMetaObjectE@Base 0.1.4
 _ZN13ZigbeeCluster18configureReportingE5QListIN20ZigbeeClusterLibrary31AttributeReportingConfigurationEEt@Base 0.1.4
 _ZN13ZigbeeCluster18createClusterReplyERK20ZigbeeNetworkRequestN20ZigbeeClusterLibrary5FrameE@Base 0.1.4
 _ZN13ZigbeeCluster18verifyNetworkErrorEP18ZigbeeClusterReplyP18ZigbeeNetworkReply@Base 0.1.4
 _ZN13ZigbeeCluster19sendDefaultResponseEhhh@Base 0.1.4
 _ZN13ZigbeeCluster20createGeneralRequestEv@Base 0.1.4
 _ZN13ZigbeeCluster20executeGlobalCommandEhRK10QByteArrayt@Base 0.1.4
 _ZN13ZigbeeCluster20updateOrAddAttributeERK22ZigbeeClusterAttribute@Base 0.1.4
 _ZN13ZigbeeCluster21executeClusterCommandEhRK10QByteArray@Base 0.1.4
 _ZN13ZigbeeCluster21processDataIndicationEN20ZigbeeClusterLibrary5FrameE@Base 0.1.4
 _ZN13ZigbeeCluster24processApsDataIndicationERK10QByteArrayRKN20ZigbeeClusterLibrary5FrameE@Base 0.1.4
 _ZN13ZigbeeCluster25sendClusterServerResponseEhhRK10QByteArray@Base 0.1.4
 _ZN13ZigbeeCluster9attributeEt@Base 0.1.4
 _ZN13ZigbeeClusterC1EP13ZigbeeNetworkP10ZigbeeNodeP18ZigbeeNodeEndpointN20ZigbeeClusterLibrary9ClusterIdENS_9DirectionEP7QObject@Base 0.1.4
 _ZN13ZigbeeClusterC2EP13ZigbeeNetworkP10ZigbeeNodeP18ZigbeeNodeEndpointN20ZigbeeClusterLibrary9ClusterIdENS_9DirectionEP7QObject@Base 0.1.4
 _ZN13ZigbeeNetwork10createNodeEtRK13ZigbeeAddressP7QObject@Base 0.1.4
 _ZN13ZigbeeNetwork10createNodeEtRK13ZigbeeAddresshP7QObject@Base 0.1.4
 _ZN13ZigbeeNetwork10nodeJoinedEP10ZigbeeNode@Base 0.1.4
 _ZN13ZigbeeNetwork10removeNodeEP10ZigbeeNode@Base 0.1.4
 _ZN13ZigbeeNetwork10setChannelEj@Base 0.1.4
 _ZN13ZigbeeNetwork11loadNetworkEv@Base 0.1.4
 _ZN13ZigbeeNetwork11nodeRemovedEP10ZigbeeNode@Base 0.1.4
 _ZN13ZigbeeNetwork11qt_metacallEN11QMetaObject4CallEiPPv@Base 0.1.4
 _ZN13ZigbeeNetwork11qt_metacastEPKc@Base 0.1.4
 _ZN13ZigbeeNetwork12errorOccuredENS_5ErrorE@Base 0.1.4
 _ZN13ZigbeeNetwork12panIdChangedEt@Base 0.1.4
 _ZN13ZigbeeNetwork12printNetworkEv@Base 0.1.4
 _ZN13ZigbeeNetwork12stateChangedENS_5StateE@Base 0.1.4
 _ZN13ZigbeeNetwork13clearSettingsEv@Base 0.1.4
 _ZN13ZigbeeNetwork13setMacAddressERK13ZigbeeAddress@Base 0.1.4
 _ZN13ZigbeeNetwork14channelChangedEj@Base 0.1.4
 _ZN13ZigbeeNetwork14setChannelMaskERK17ZigbeeChannelMask@Base 0.1.4
 _ZN13ZigbeeNetwork15setSerialNumberERK7QString@Base 0.1.4
 _ZN13ZigbeeNetwork16removeZigbeeNodeERK13ZigbeeAddress@Base 0.1.4
 _ZN13ZigbeeNetwork16setExtendedPanIdEy@Base 0.1.4
 _ZN13ZigbeeNetwork16setNodeReachableEP10ZigbeeNodeb@Base 0.1.4
 _ZN13ZigbeeNetwork16staticMetaObjectE@Base 0.1.4
 _ZN13ZigbeeNetwork17addNodeInternallyEP10ZigbeeNode@Base 0.1.4
 _ZN13ZigbeeNetwork17macAddressChangedERK13ZigbeeAddress@Base 0.1.4
 _ZN13ZigbeeNetwork17onDeviceAnnouncedEt13ZigbeeAddressh@Base 0.1.4
 _ZN13ZigbeeNetwork17setSerialBaudrateEi@Base 0.1.4
 _ZN13ZigbeeNetwork17setSerialPortNameERK7QString@Base 0.1.4
 _ZN13ZigbeeNetwork17startWaitingReplyEP18ZigbeeNetworkReply@Base 0.1.4
 _ZN13ZigbeeNetwork18addUnitializedNodeEP10ZigbeeNode@Base 0.1.4
 _ZN13ZigbeeNetwork18channelMaskChangedERK17ZigbeeChannelMask@Base 0.1.4
 _ZN13ZigbeeNetwork18createNetworkReplyERK20ZigbeeNetworkRequest@Base 0.1.4
 _ZN13ZigbeeNetwork18finishNetworkReplyEP18ZigbeeNetworkReplyNS0_5ErrorE@Base 0.1.4
 _ZN13ZigbeeNetwork18initializeDatabaseEv@Base 0.1.4
 _ZN13ZigbeeNetwork18onNodeStateChangedEN10ZigbeeNode5StateE@Base 0.1.4
 _ZN13ZigbeeNetwork18setNodeInformationEP10ZigbeeNodeRK7QStringS4_S4_@Base 0.1.4
 _ZN13ZigbeeNetwork18updateReplyRequestEP18ZigbeeNetworkReplyRK20ZigbeeNetworkRequest@Base 0.1.4
 _ZN13ZigbeeNetwork20extendedPanIdChangedEy@Base 0.1.4
 _ZN13ZigbeeNetwork20handleNodeIndicationEP10ZigbeeNodeN6Zigbee19ApsdeDataIndicationE@Base 0.1.4
 _ZN13ZigbeeNetwork20removeNodeInternallyEP10ZigbeeNode@Base 0.1.4
 _ZN13ZigbeeNetwork20setSettingsDirectoryERK4QDir@Base 0.1.4
 _ZN13ZigbeeNetwork21serialBaudrateChangedEi@Base 0.1.4
 _ZN13ZigbeeNetwork21serialPortNameChangedERK7QString@Base 0.1.4
 _ZN13ZigbeeNetwork21setReplyResponseErrorEP18ZigbeeNetworkReplyh@Base 0.1.4
 _ZN13ZigbeeNetwork22firmwareVersionChangedERK7QString@Base 0.1.4
 _ZN13ZigbeeNetwork22generateSequenceNumberEv@Base 0.1.4
 _ZN13ZigbeeNetwork22verifyUnrecognizedNodeEt@Base 0.1.4
 _ZN13ZigbeeNetwork23removeUninitializedNodeEP10ZigbeeNode@Base 0.1.4
 _ZN13ZigbeeNetwork23setPermitJoiningEnabledEb@Base 0.1.4
 _ZN13ZigbeeNetwork24setPermitJoiningDurationEh@Base 0.1.4
 _ZN13ZigbeeNetwork24setSecurityConfigurationERK27ZigbeeSecurityConfiguration@Base 0.1.4
 _ZN13ZigbeeNetwork24settingsDirectoryChangedERK4QDir@Base 0.1.4
 _ZN13ZigbeeNetwork24updateNodeNetworkAddressEP10ZigbeeNodet@Base 0.1.4
 _ZN13ZigbeeNetwork25permitJoinDurationChangedEh@Base 0.1.4
 _ZN13ZigbeeNetwork25setPermitJoiningRemainingEh@Base 0.1.4
 _ZN13ZigbeeNetwork26permitJoinRemainingChangedEh@Base 0.1.4
 _ZN13ZigbeeNetwork27evaluateNodeReachableStatesEv@Base 0.1.4
 _ZN13ZigbeeNetwork27permitJoiningEnabledChangedEb@Base 0.1.4
 _ZN13ZigbeeNetwork28securityConfigurationChangedERK27ZigbeeSecurityConfiguration@Base 0.1.4
 _ZN13ZigbeeNetwork29onNodeClusterAttributeChangedEP13ZigbeeClusterRK22ZigbeeClusterAttribute@Base 0.1.4
 _ZN13ZigbeeNetwork30evaluateNextNodeReachableStateEv@Base 0.1.4
 _ZN13ZigbeeNetwork35handleZigbeeDeviceProfileIndicationERKN6Zigbee19ApsdeDataIndicationE@Base 0.1.4
 _ZN13ZigbeeNetwork36handleZigbeeClusterLibraryIndicationERKN6Zigbee19ApsdeDataIndicationE@Base 0.1.4
 _ZN13ZigbeeNetwork5panIdEv@Base 0.1.4
 _ZN13ZigbeeNetwork7addNodeEP10ZigbeeNode@Base 0.1.4
 _ZN13ZigbeeNetwork8setErrorENS_5ErrorE@Base 0.1.4
 _ZN13ZigbeeNetwork8setPanIdEt@Base 0.1.4
 _ZN13ZigbeeNetwork8setStateENS_5StateE@Base 0.1.4
 _ZN13ZigbeeNetwork9nodeAddedEP10ZigbeeNode@Base 0.1.4
 _ZN13ZigbeeNetworkC1ERK5QUuidP7QObject@Base 0.1.4
 _ZN13ZigbeeNetworkC2ERK5QUuidP7QObject@Base 0.1.4
 _ZN14ZigbeeDataType10typeLengthEN6Zigbee8DataTypeE@Base 0.1.4
 _ZN14ZigbeeDataType11setDataTypeEN6Zigbee8DataTypeE@Base 0.1.4
 _ZN14ZigbeeDataTypeC1EN6Zigbee8DataTypeERK10QByteArray@Base 0.1.4
 _ZN14ZigbeeDataTypeC1ERK7QStringN6Zigbee8DataTypeE@Base 0.1.4
 _ZN14ZigbeeDataTypeC1ERKS_@Base 0.1.4
 _ZN14ZigbeeDataTypeC1Ea@Base 0.1.4
 _ZN14ZigbeeDataTypeC1Eb@Base 0.1.4
 _ZN14ZigbeeDataTypeC1Eh@Base 0.1.4
 _ZN14ZigbeeDataTypeC1EiN6Zigbee8DataTypeE@Base 0.1.4
 _ZN14ZigbeeDataTypeC1EjN6Zigbee8DataTypeE@Base 0.1.4
 _ZN14ZigbeeDataTypeC1Es@Base 0.1.4
 _ZN14ZigbeeDataTypeC1Et@Base 0.1.4
 _ZN14ZigbeeDataTypeC1Ev@Base 0.1.4
 _ZN14ZigbeeDataTypeC1ExN6Zigbee8DataTypeE@Base 0.1.4
 _ZN14ZigbeeDataTypeC1EyN6Zigbee8DataTypeE@Base 0.1.4
 _ZN14ZigbeeDataTypeC2EN6Zigbee8DataTypeERK10QByteArray@Base 0.1.4
 _ZN14ZigbeeDataTypeC2ERK7QStringN6Zigbee8DataTypeE@Base 0.1.4
 _ZN14ZigbeeDataTypeC2ERKS_@Base 0.1.4
 _ZN14ZigbeeDataTypeC2Ea@Base 0.1.4
 _ZN14ZigbeeDataTypeC2Eb@Base 0.1.4
 _ZN14ZigbeeDataTypeC2Eh@Base 0.1.4
 _ZN14ZigbeeDataTypeC2EiN6Zigbee8DataTypeE@Base 0.1.4
 _ZN14ZigbeeDataTypeC2EjN6Zigbee8DataTypeE@Base 0.1.4
 _ZN14ZigbeeDataTypeC2Es@Base 0.1.4
 _ZN14ZigbeeDataTypeC2Et@Base 0.1.4
 _ZN14ZigbeeDataTypeC2Ev@Base 0.1.4
 _ZN14ZigbeeDataTypeC2ExN6Zigbee8DataTypeE@Base 0.1.4
 _ZN14ZigbeeDataTypeC2EyN6Zigbee8DataTypeE@Base 0.1.4
 _ZN14ZigbeeDataTypeaSERKS_@Base 0.1.4
 _ZN16ZigbeeClusterOta11qt_metacallEN11QMetaObject4CallEiPPv@Base 0.1.4
 _ZN16ZigbeeClusterOta11qt_metacastEPKc@Base 0.1.4
 _ZN16ZigbeeClusterOta12setAttributeERK22ZigbeeClusterAttribute@Base 0.1.4
 _ZN16ZigbeeClusterOta16parseFileVersionEj@Base 0.1.4
 _ZN16ZigbeeClusterOta16staticMetaObjectE@Base 0.1.4
 _ZN16ZigbeeClusterOta21processDataIndicationEN20ZigbeeClusterLibrary5FrameE@Base 0.1.4
 _ZN16ZigbeeClusterOtaC1EP13ZigbeeNetworkP10ZigbeeNodeP18ZigbeeNodeEndpointN13ZigbeeCluster9DirectionEP7QObject@Base 0.1.4
 _ZN16ZigbeeClusterOtaC2EP13ZigbeeNetworkP10ZigbeeNodeP18ZigbeeNodeEndpointN13ZigbeeCluster9DirectionEP7QObject@Base 0.1.4
 _ZN16ZigbeeNetworkKey11generateKeyEv@Base 0.1.4
 _ZN16ZigbeeNetworkKeyC1ERK10QByteArray@Base 0.1.4
 _ZN16ZigbeeNetworkKeyC1ERK7QString@Base 0.1.4
 _ZN16ZigbeeNetworkKeyC1ERKS_@Base 0.1.4
 _ZN16ZigbeeNetworkKeyC1Ev@Base 0.1.4
 _ZN16ZigbeeNetworkKeyC2ERK10QByteArray@Base 0.1.4
 _ZN16ZigbeeNetworkKeyC2ERK7QString@Base 0.1.4
 _ZN16ZigbeeNetworkKeyC2ERKS_@Base 0.1.4
 _ZN16ZigbeeNetworkKeyC2Ev@Base 0.1.4
 _ZN16ZigbeeNetworkKeyaSERKS_@Base 0.1.4
 _ZN16ZigbeeNetworkNxp11qt_metacallEN11QMetaObject4CallEiPPv@Base 0.1.4
 _ZN16ZigbeeNetworkNxp11qt_metacastEPKc@Base 0.1.4
 _ZN16ZigbeeNetworkNxp11sendRequestERK20ZigbeeNetworkRequest@Base 0.1.4
 _ZN16ZigbeeNetworkNxp11stopNetworkEv@Base 0.1.4
 _ZN16ZigbeeNetworkNxp12startNetworkEv@Base 0.1.4
 _ZN16ZigbeeNetworkNxp13sendNextReplyEv@Base 0.1.4
 _ZN16ZigbeeNetworkNxp14destroyNetworkEv@Base 0.1.4
 _ZN16ZigbeeNetworkNxp16setPermitJoiningEht@Base 0.1.4
 _ZN16ZigbeeNetworkNxp16staticMetaObjectE@Base 0.1.4
 _ZN16ZigbeeNetworkNxp19factoryResetNetworkEv@Base 0.1.4
 _ZN16ZigbeeNetworkNxp19processVersionReplyEP23ZigbeeInterfaceNxpReply@Base 0.1.4
 _ZN16ZigbeeNetworkNxp20onApsDataAckReceivedERKN6Zigbee12ApsdeDataAckE@Base 0.1.4
 _ZN16ZigbeeNetworkNxp20onNodeLeftIndicationERK13ZigbeeAddressb@Base 0.1.4
 _ZN16ZigbeeNetworkNxp20requestSetPermitJoinEth@Base 0.1.4
 _ZN16ZigbeeNetworkNxp21finishReplyInternallyEP18ZigbeeNetworkReplyNS0_5ErrorE@Base 0.1.4
 _ZN16ZigbeeNetworkNxp24onApsDataConfirmReceivedERKN6Zigbee16ApsdeDataConfirmE@Base 0.1.4
 _ZN16ZigbeeNetworkNxp24onControllerStateChangedEN25ZigbeeBridgeControllerNxp15ControllerStateE@Base 0.1.4
 _ZN16ZigbeeNetworkNxp27onApsDataIndicationReceivedERKN6Zigbee19ApsdeDataIndicationE@Base 0.1.4
 _ZN16ZigbeeNetworkNxp28onControllerAvailableChangedEb@Base 0.1.4
 _ZN16ZigbeeNetworkNxp31onInterfaceNotificationReceivedEN3Nxp12NotificationERK10QByteArray@Base 0.1.4
 _ZN16ZigbeeNetworkNxp5resetEv@Base 0.1.4
 _ZN16ZigbeeNetworkNxpC1ERK5QUuidP7QObject@Base 0.1.4
 _ZN16ZigbeeNetworkNxpC2ERK5QUuidP7QObject@Base 0.1.4
 _ZN17QtMetaTypePrivate23QMetaTypeFunctionHelperI17ZigbeeUartAdapterLb1EE8DestructEPv@Base 0.1.4
 _ZN17QtMetaTypePrivate23QMetaTypeFunctionHelperI17ZigbeeUartAdapterLb1EE9ConstructEPvPKv@Base 0.1.4
 _ZN17QtMetaTypePrivate23QMetaTypeFunctionHelperIN11QSerialPort15SerialPortErrorELb1EE8DestructEPv@Base 0.1.4
 _ZN17QtMetaTypePrivate23QMetaTypeFunctionHelperIN11QSerialPort15SerialPortErrorELb1EE9ConstructEPvPKv@Base 0.1.4
 _ZN17QtMetaTypePrivate23QMetaTypeFunctionHelperIP10ZigbeeNodeLb1EE8DestructEPv@Base 0.1.4
 _ZN17QtMetaTypePrivate23QMetaTypeFunctionHelperIP10ZigbeeNodeLb1EE9ConstructEPvPKv@Base 0.1.4
 _ZN17QtMetaTypePrivate23QMetaTypeFunctionHelperIP13ZigbeeClusterLb1EE8DestructEPv@Base 0.1.4
 _ZN17QtMetaTypePrivate23QMetaTypeFunctionHelperIP13ZigbeeClusterLb1EE9ConstructEPvPKv@Base 0.1.4
 _ZN17QtMetaTypePrivate23QMetaTypeFunctionHelperIP18ZigbeeNodeEndpointLb1EE8DestructEPv@Base 0.1.4
 _ZN17QtMetaTypePrivate23QMetaTypeFunctionHelperIP18ZigbeeNodeEndpointLb1EE9ConstructEPvPKv@Base 0.1.4
 _ZN17ZigbeeChannelMask10setChannelEN6Zigbee13ZigbeeChannelE@Base 0.1.4
 _ZN17ZigbeeChannelMask12unsetChannelEN6Zigbee13ZigbeeChannelE@Base 0.1.4
 _ZN17ZigbeeChannelMask16staticMetaObjectE@Base 0.1.4
 _ZN17ZigbeeChannelMask5clearEv@Base 0.1.4
 _ZN17ZigbeeChannelMaskC1E6QFlagsIN6Zigbee13ZigbeeChannelEE@Base 0.1.4
 _ZN17ZigbeeChannelMaskC1ERKS_@Base 0.1.4
 _ZN17ZigbeeChannelMaskC1Ej@Base 0.1.4
 _ZN17ZigbeeChannelMaskC1Ev@Base 0.1.4
 _ZN17ZigbeeChannelMaskC2E6QFlagsIN6Zigbee13ZigbeeChannelEE@Base 0.1.4
 _ZN17ZigbeeChannelMaskC2ERKS_@Base 0.1.4
 _ZN17ZigbeeChannelMaskC2Ej@Base 0.1.4
 _ZN17ZigbeeChannelMaskC2Ev@Base 0.1.4
 _ZN17ZigbeeChannelMaskaSERKS_@Base 0.1.4
 _ZN17ZigbeeUartAdapter11setBaudRateEi@Base 0.1.4
 _ZN17ZigbeeUartAdapter13setSerialPortERK7QString@Base 0.1.4
 _ZN17ZigbeeUartAdapter14setBackendTypeEN6Zigbee17ZigbeeBackendTypeE@Base 0.1.4
 _ZN17ZigbeeUartAdapter14setDescriptionERK7QString@Base 0.1.4
 _ZN17ZigbeeUartAdapter15setSerialNumberERK7QString@Base 0.1.4
 _ZN17ZigbeeUartAdapter21setHardwareRecognizedEb@Base 0.1.4
 _ZN17ZigbeeUartAdapter7setNameERK7QString@Base 0.1.4
 _ZN17ZigbeeUartAdapterC1Ev@Base 0.1.4
 _ZN17ZigbeeUartAdapterC2Ev@Base 0.1.4
 _ZN18ZigbeeClusterBasic11qt_metacallEN11QMetaObject4CallEiPPv@Base 0.1.4
 _ZN18ZigbeeClusterBasic11qt_metacastEPKc@Base 0.1.4
 _ZN18ZigbeeClusterBasic12setAttributeERK22ZigbeeClusterAttribute@Base 0.1.4
 _ZN18ZigbeeClusterBasic16staticMetaObjectE@Base 0.1.4
 _ZN18ZigbeeClusterBasic22resetToFactoryDefaultsEv@Base 0.1.4
 _ZN18ZigbeeClusterBasicC1EP13ZigbeeNetworkP10ZigbeeNodeP18ZigbeeNodeEndpointN13ZigbeeCluster9DirectionEP7QObject@Base 0.1.4
 _ZN18ZigbeeClusterBasicC2EP13ZigbeeNetworkP10ZigbeeNodeP18ZigbeeNodeEndpointN13ZigbeeCluster9DirectionEP7QObject@Base 0.1.4
 _ZN18ZigbeeClusterOnOff10commandOffEv@Base 0.1.4
 _ZN18ZigbeeClusterOnOff11commandSentENS_7CommandERK10QByteArray@Base 0.1.4
 _ZN18ZigbeeClusterOnOff11qt_metacallEN11QMetaObject4CallEiPPv@Base 0.1.4
 _ZN18ZigbeeClusterOnOff11qt_metacastEPKc@Base 0.1.4
 _ZN18ZigbeeClusterOnOff12powerChangedEb@Base 0.1.4
 _ZN18ZigbeeClusterOnOff12setAttributeERK22ZigbeeClusterAttribute@Base 0.1.4
 _ZN18ZigbeeClusterOnOff13commandToggleEv@Base 0.1.4
 _ZN18ZigbeeClusterOnOff16staticMetaObjectE@Base 0.1.4
 _ZN18ZigbeeClusterOnOff20commandOffWithEffectENS_6EffectEh@Base 0.1.4
 _ZN18ZigbeeClusterOnOff21commandOnWithTimedOffEbtt@Base 0.1.4
 _ZN18ZigbeeClusterOnOff21processDataIndicationEN20ZigbeeClusterLibrary5FrameE@Base 0.1.4
 _ZN18ZigbeeClusterOnOff24commandOffWithEffectSentENS_6EffectEh@Base 0.1.4
 _ZN18ZigbeeClusterOnOff25commandOnWithTimedOffSentEbtt@Base 0.1.4
 _ZN18ZigbeeClusterOnOff30commandOnWithRecallGlobalSceneEv@Base 0.1.4
 _ZN18ZigbeeClusterOnOff9commandOnEv@Base 0.1.4
 _ZN18ZigbeeClusterOnOffC1EP13ZigbeeNetworkP10ZigbeeNodeP18ZigbeeNodeEndpointN13ZigbeeCluster9DirectionEP7QObject@Base 0.1.4
 _ZN18ZigbeeClusterOnOffC2EP13ZigbeeNetworkP10ZigbeeNodeP18ZigbeeNodeEndpointN13ZigbeeCluster9DirectionEP7QObject@Base 0.1.4
 _ZN18ZigbeeClusterReply11qt_metacallEN11QMetaObject4CallEiPPv@Base 0.1.4
 _ZN18ZigbeeClusterReply11qt_metacastEPKc@Base 0.1.4
 _ZN18ZigbeeClusterReply16staticMetaObjectE@Base 0.1.4
 _ZN18ZigbeeClusterReply8finishedEv@Base 0.1.4
 _ZN18ZigbeeClusterReplyC1ERK20ZigbeeNetworkRequestN20ZigbeeClusterLibrary5FrameEP7QObject@Base 0.1.4
 _ZN18ZigbeeClusterReplyC2ERK20ZigbeeNetworkRequestN20ZigbeeClusterLibrary5FrameEP7QObject@Base 0.1.4
 _ZN18ZigbeeDeviceObject11qt_metacallEN11QMetaObject4CallEiPPv@Base 0.1.4
 _ZN18ZigbeeDeviceObject11qt_metacastEPKc@Base 0.1.4
 _ZN18ZigbeeDeviceObject13requestUnbindERKN19ZigbeeDeviceProfile22BindingTableListRecordE@Base 0.1.4
 _ZN18ZigbeeDeviceObject14finishZdoReplyEP23ZigbeeDeviceObjectReply@Base 0.1.4
 _ZN18ZigbeeDeviceObject14requestMgmtLqiEh@Base 0.1.4
 _ZN18ZigbeeDeviceObject15buildZdoRequestEt@Base 0.1.4
 _ZN18ZigbeeDeviceObject15requestMgmtBindEh@Base 0.1.4
 _ZN18ZigbeeDeviceObject16staticMetaObjectE@Base 0.1.4
 _ZN18ZigbeeDeviceObject18requestIeeeAddressEv@Base 0.1.4
 _ZN18ZigbeeDeviceObject18verifyNetworkErrorEP23ZigbeeDeviceObjectReplyP18ZigbeeNetworkReply@Base 0.1.4
 _ZN18ZigbeeDeviceObject19requestBindRegisterERK13ZigbeeAddress@Base 0.1.4
 _ZN18ZigbeeDeviceObject21requestNetworkAddressEv@Base 0.1.4
 _ZN18ZigbeeDeviceObject21requestNodeDescriptorEv@Base 0.1.4
 _ZN18ZigbeeDeviceObject22requestActiveEndpointsEv@Base 0.1.4
 _ZN18ZigbeeDeviceObject22requestBindIeeeAddressEhtRK13ZigbeeAddressh@Base 0.1.4
 _ZN18ZigbeeDeviceObject22requestPowerDescriptorEv@Base 0.1.4
 _ZN18ZigbeeDeviceObject23requestBindGroupAddressEhtt@Base 0.1.4
 _ZN18ZigbeeDeviceObject23requestMgmtLeaveNetworkEbb@Base 0.1.4
 _ZN18ZigbeeDeviceObject23requestSimpleDescriptorEh@Base 0.1.4
 _ZN18ZigbeeDeviceObject24processApsDataIndicationERKN6Zigbee19ApsdeDataIndicationE@Base 0.1.4
 _ZN18ZigbeeDeviceObject29createZigbeeDeviceObjectReplyERK20ZigbeeNetworkRequesth@Base 0.1.4
 _ZN18ZigbeeDeviceObjectC1EP13ZigbeeNetworkP10ZigbeeNodeP7QObject@Base 0.1.4
 _ZN18ZigbeeDeviceObjectC2EP13ZigbeeNetworkP10ZigbeeNodeP7QObject@Base 0.1.4
 _ZN18ZigbeeInterfaceNxp10escapeDataERK10QByteArray@Base 0.1.4
 _ZN18ZigbeeInterfaceNxp11onReadyReadEv@Base 0.1.4
 _ZN18ZigbeeInterfaceNxp11qt_metacallEN11QMetaObject4CallEiPPv@Base 0.1.4
 _ZN18ZigbeeInterfaceNxp11qt_metacastEPKc@Base 0.1.4
 _ZN18ZigbeeInterfaceNxp11sendPackageERK10QByteArray@Base 0.1.4
 _ZN18ZigbeeInterfaceNxp12calculateCrcERK10QByteArray@Base 0.1.4
 _ZN18ZigbeeInterfaceNxp12setAvailableEb@Base 0.1.4
 _ZN18ZigbeeInterfaceNxp12unescapeDataERK10QByteArray@Base 0.1.4
 _ZN18ZigbeeInterfaceNxp15packageReceivedERK10QByteArray@Base 0.1.4
 _ZN18ZigbeeInterfaceNxp16availableChangedEb@Base 0.1.4
 _ZN18ZigbeeInterfaceNxp16staticMetaObjectE@Base 0.1.4
 _ZN18ZigbeeInterfaceNxp18onReconnectTimeoutEv@Base 0.1.4
 _ZN18ZigbeeInterfaceNxp19reconnectControllerEv@Base 0.1.4
 _ZN18ZigbeeInterfaceNxp6enableERK7QStringi@Base 0.1.4
 _ZN18ZigbeeInterfaceNxp7disableEv@Base 0.1.4
 _ZN18ZigbeeInterfaceNxp7onErrorERKN11QSerialPort15SerialPortErrorE@Base 0.1.4
 _ZN18ZigbeeInterfaceNxpC1EP7QObject@Base 0.1.4
 _ZN18ZigbeeInterfaceNxpC2EP7QObject@Base 0.1.4
 _ZN18ZigbeeInterfaceNxpD0Ev@Base 0.1.4
 _ZN18ZigbeeInterfaceNxpD1Ev@Base 0.1.4
 _ZN18ZigbeeInterfaceNxpD2Ev@Base 0.1.4
 _ZN18ZigbeeManufacturerC1Et@Base 0.1.4
 _ZN18ZigbeeManufacturerC1Ev@Base 0.1.4
 _ZN18ZigbeeManufacturerC2Et@Base 0.1.4
 _ZN18ZigbeeManufacturerC2Ev@Base 0.1.4
 _ZN18ZigbeeNetworkReply11qt_metacallEN11QMetaObject4CallEiPPv@Base 0.1.4
 _ZN18ZigbeeNetworkReply11qt_metacastEPKc@Base 0.1.4
 _ZN18ZigbeeNetworkReply16staticMetaObjectE@Base 0.1.4
 _ZN18ZigbeeNetworkReply8finishedEv@Base 0.1.4
 _ZN18ZigbeeNetworkReplyC1ERK20ZigbeeNetworkRequestP7QObject@Base 0.1.4
 _ZN18ZigbeeNetworkReplyC2ERK20ZigbeeNetworkRequestP7QObject@Base 0.1.4
 _ZN18ZigbeeNodeEndpoint10setProfileEN6Zigbee13ZigbeeProfileE@Base 0.1.4
 _ZN18ZigbeeNodeEndpoint11qt_metacallEN11QMetaObject4CallEiPPv@Base 0.1.4
 _ZN18ZigbeeNodeEndpoint11qt_metacastEPKc@Base 0.1.4
 _ZN18ZigbeeNodeEndpoint11setDeviceIdEt@Base 0.1.4
 _ZN18ZigbeeNodeEndpoint13createClusterEN20ZigbeeClusterLibrary9ClusterIdEN13ZigbeeCluster9DirectionE@Base 0.1.4
 _ZN18ZigbeeNodeEndpoint15addInputClusterEP13ZigbeeCluster@Base 0.1.4
 _ZN18ZigbeeNodeEndpoint16addOutputClusterEP13ZigbeeCluster@Base 0.1.4
 _ZN18ZigbeeNodeEndpoint16setDeviceVersionEh@Base 0.1.4
 _ZN18ZigbeeNodeEndpoint16staticMetaObjectE@Base 0.1.4
 _ZN18ZigbeeNodeEndpoint17inputClusterAddedEP13ZigbeeCluster@Base 0.1.4
 _ZN18ZigbeeNodeEndpoint18outputClusterAddedEP13ZigbeeCluster@Base 0.1.4
 _ZN18ZigbeeNodeEndpoint18setModelIdentifierERK7QString@Base 0.1.4
 _ZN18ZigbeeNodeEndpoint18setSoftwareBuildIdERK7QString@Base 0.1.4
 _ZN18ZigbeeNodeEndpoint19setManufacturerNameERK7QString@Base 0.1.4
 _ZN18ZigbeeNodeEndpoint22modelIdentifierChangedERK7QString@Base 0.1.4
 _ZN18ZigbeeNodeEndpoint22softwareBuildIdChangedERK7QString@Base 0.1.4
 _ZN18ZigbeeNodeEndpoint23clusterAttributeChangedEP13ZigbeeClusterRK22ZigbeeClusterAttribute@Base 0.1.4
 _ZN18ZigbeeNodeEndpoint23manufacturerNameChangedERK7QString@Base 0.1.4
 _ZN18ZigbeeNodeEndpoint36handleZigbeeClusterLibraryIndicationERKN6Zigbee19ApsdeDataIndicationE@Base 0.1.4
 _ZN18ZigbeeNodeEndpointC1EP13ZigbeeNetworkP10ZigbeeNodehP7QObject@Base 0.1.4
 _ZN18ZigbeeNodeEndpointC2EP13ZigbeeNetworkP10ZigbeeNodehP7QObject@Base 0.1.4
 _ZN18ZigbeeNodeEndpointD0Ev@Base 0.1.4
 _ZN18ZigbeeNodeEndpointD1Ev@Base 0.1.4
 _ZN18ZigbeeNodeEndpointD2Ev@Base 0.1.4
 _ZN19ZigbeeClusterGroups11qt_metacallEN11QMetaObject4CallEiPPv@Base 0.1.4
 _ZN19ZigbeeClusterGroups11qt_metacastEPKc@Base 0.1.4
 _ZN19ZigbeeClusterGroups11removeGroupEt@Base 0.1.4
 _ZN19ZigbeeClusterGroups12setAttributeERK22ZigbeeClusterAttribute@Base 0.1.4
 _ZN19ZigbeeClusterGroups15removeAllGroupsEv@Base 0.1.4
 _ZN19ZigbeeClusterGroups16staticMetaObjectE@Base 0.1.4
 _ZN19ZigbeeClusterGroups18getGroupMembershipEhRK5QListItE@Base 0.1.4
 _ZN19ZigbeeClusterGroups21addGroupIfIdentifyingEtRK7QString@Base 0.1.4
 _ZN19ZigbeeClusterGroups8addGroupEtRK7QString@Base 0.1.4
 _ZN19ZigbeeClusterGroups9viewGroupEt@Base 0.1.4
 _ZN19ZigbeeClusterGroupsC1EP13ZigbeeNetworkP10ZigbeeNodeP18ZigbeeNodeEndpointN13ZigbeeCluster9DirectionEP7QObject@Base 0.1.4
 _ZN19ZigbeeClusterGroupsC2EP13ZigbeeNetworkP10ZigbeeNodeP18ZigbeeNodeEndpointN13ZigbeeCluster9DirectionEP7QObject@Base 0.1.4
 _ZN19ZigbeeClusterScenes11commandSentENS_7CommandEth@Base 0.1.4
 _ZN19ZigbeeClusterScenes11qt_metacallEN11QMetaObject4CallEiPPv@Base 0.1.4
 _ZN19ZigbeeClusterScenes11qt_metacastEPKc@Base 0.1.4
 _ZN19ZigbeeClusterScenes12setAttributeERK22ZigbeeClusterAttribute@Base 0.1.4
 _ZN19ZigbeeClusterScenes16staticMetaObjectE@Base 0.1.4
 _ZN19ZigbeeClusterScenes21processDataIndicationEN20ZigbeeClusterLibrary5FrameE@Base 0.1.4
 _ZN19ZigbeeClusterScenesC1EP13ZigbeeNetworkP10ZigbeeNodeP18ZigbeeNodeEndpointN13ZigbeeCluster9DirectionEP7QObject@Base 0.1.4
 _ZN19ZigbeeClusterScenesC2EP13ZigbeeNetworkP10ZigbeeNodeP18ZigbeeNodeEndpointN13ZigbeeCluster9DirectionEP7QObject@Base 0.1.4
 _ZN19ZigbeeDeviceProfile15parseServerMaskEt@Base 0.1.4
 _ZN19ZigbeeDeviceProfile16staticMetaObjectE@Base 0.1.4
 _ZN19ZigbeeDeviceProfile19parseNodeDescriptorERK10QByteArray@Base 0.1.4
 _ZN19ZigbeeDeviceProfile20parseMacCapabilitiesEh@Base 0.1.4
 _ZN19ZigbeeDeviceProfile20parsePowerDescriptorEt@Base 0.1.4
 _ZN19ZigbeeDeviceProfile27parseDescriptorCapabilitiesEh@Base 0.1.4
 _ZN19ZigbeeDeviceProfile9parseAdpuERK10QByteArray@Base 0.1.4
 _ZN19ZigbeeNetworkDeconz11qt_metacallEN11QMetaObject4CallEiPPv@Base 0.1.4
 _ZN19ZigbeeNetworkDeconz11qt_metacastEPKc@Base 0.1.4
 _ZN19ZigbeeNetworkDeconz11sendRequestERK20ZigbeeNetworkRequest@Base 0.1.4
 _ZN19ZigbeeNetworkDeconz11stopNetworkEv@Base 0.1.4
 _ZN19ZigbeeNetworkDeconz12startNetworkEv@Base 0.1.4
 _ZN19ZigbeeNetworkDeconz14destroyNetworkEv@Base 0.1.4
 _ZN19ZigbeeNetworkDeconz16setPermitJoiningEht@Base 0.1.4
 _ZN19ZigbeeNetworkDeconz16staticMetaObjectE@Base 0.1.4
 _ZN19ZigbeeNetworkDeconz19factoryResetNetworkEv@Base 0.1.4
 _ZN19ZigbeeNetworkDeconz20requestSetPermitJoinEth@Base 0.1.4
 _ZN19ZigbeeNetworkDeconz21runNetworkInitProcessEv@Base 0.1.4
 _ZN19ZigbeeNetworkDeconz21setCreateNetworkStateENS_18CreateNetworkStateE@Base 0.1.4
 _ZN19ZigbeeNetworkDeconz22startNetworkInternallyEv@Base 0.1.4
 _ZN19ZigbeeNetworkDeconz24onApsDataConfirmReceivedERKN6Zigbee16ApsdeDataConfirmE@Base 0.1.4
 _ZN19ZigbeeNetworkDeconz25onPollNetworkStateTimeoutEv@Base 0.1.4
 _ZN19ZigbeeNetworkDeconz27onApsDataIndicationReceivedERKN6Zigbee19ApsdeDataIndicationE@Base 0.1.4
 _ZN19ZigbeeNetworkDeconz28onControllerAvailableChangedEb@Base 0.1.4
 _ZN19ZigbeeNetworkDeconz5resetEv@Base 0.1.4
 _ZN19ZigbeeNetworkDeconzC1ERK5QUuidP7QObject@Base 0.1.4
 _ZN19ZigbeeNetworkDeconzC2ERK5QUuidP7QObject@Base 0.1.4
 _ZN20ZigbeeClusterIasZone11qt_metacallEN11QMetaObject4CallEiPPv@Base 0.1.4
 _ZN20ZigbeeClusterIasZone11qt_metacastEPKc@Base 0.1.4
 _ZN20ZigbeeClusterIasZone12setAttributeERK22ZigbeeClusterAttribute@Base 0.1.4
 _ZN20ZigbeeClusterIasZone16staticMetaObjectE@Base 0.1.4
 _ZN20ZigbeeClusterIasZone17zoneEnrollRequestENS_8ZoneTypeEt@Base 0.1.4
 _ZN20ZigbeeClusterIasZone17zoneStatusChangedE6QFlagsINS_10ZoneStatusEEhht@Base 0.1.4
 _ZN20ZigbeeClusterIasZone21processDataIndicationEN20ZigbeeClusterLibrary5FrameE@Base 0.1.4
 _ZN20ZigbeeClusterIasZone21sendZoneEnrollRequestENS_8ZoneTypeEt@Base 0.1.4
 _ZN20ZigbeeClusterIasZone22sendZoneEnrollResponseEhNS_18EnrollResponseCodeE@Base 0.1.4
 _ZN20ZigbeeClusterIasZone32sendZoneStatusChangeNotificationENS_10ZoneStatusEht@Base 0.1.4
 _ZN20ZigbeeClusterIasZoneC1EP13ZigbeeNetworkP10ZigbeeNodeP18ZigbeeNodeEndpointN13ZigbeeCluster9DirectionEP7QObject@Base 0.1.4
 _ZN20ZigbeeClusterIasZoneC2EP13ZigbeeNetworkP10ZigbeeNodeP18ZigbeeNodeEndpointN13ZigbeeCluster9DirectionEP7QObject@Base 0.1.4
 _ZN20ZigbeeClusterLibrary10buildFrameERKNS_5FrameE@Base 0.1.4
 _ZN20ZigbeeClusterLibrary11buildHeaderERKNS_6HeaderE@Base 0.1.4
 _ZN20ZigbeeClusterLibrary12readDataTypeEP11QDataStreamN6Zigbee8DataTypeE@Base 0.1.4
 _ZN20ZigbeeClusterLibrary14parseFrameDataERK10QByteArray@Base 0.1.4
 _ZN20ZigbeeClusterLibrary16staticMetaObjectE@Base 0.1.4
 _ZN20ZigbeeClusterLibrary21buildFrameControlByteERKNS_12FrameControlE@Base 0.1.4
 _ZN20ZigbeeClusterLibrary21parseFrameControlByteEh@Base 0.1.4
 _ZN20ZigbeeClusterLibrary25buildWriteAttributeRecordERKNS_20WriteAttributeRecordE@Base 0.1.4
 _ZN20ZigbeeClusterLibrary27parseAttributeStatusRecordsERK10QByteArray@Base 0.1.4
 _ZN20ZigbeeClusterLibrary36buildAttributeReportingConfigurationERKNS_31AttributeReportingConfigurationE@Base 0.1.4
 _ZN20ZigbeeClusterLibrary36parseAttributeReportingStatusRecordsERK10QByteArray@Base 0.1.4
 _ZN20ZigbeeNetworkManager16staticMetaObjectE@Base 0.1.4
 _ZN20ZigbeeNetworkManager19createZigbeeNetworkERK5QUuidN6Zigbee17ZigbeeBackendTypeEP7QObject@Base 0.1.4
 _ZN20ZigbeeNetworkManager27availableZigbeeBackendTypesEv@Base 0.1.4
 _ZN20ZigbeeNetworkRequest12setClusterIdEt@Base 0.1.4
 _ZN20ZigbeeNetworkRequest12setProfileIdEt@Base 0.1.4
 _ZN20ZigbeeNetworkRequest12setRequestIdEh@Base 0.1.4
 _ZN20ZigbeeNetworkRequest12setTxOptionsE6QFlagsIN6Zigbee14ZigbeeTxOptionEE@Base 0.1.4
 _ZN20ZigbeeNetworkRequest17setSourceEndpointEh@Base 0.1.4
 _ZN20ZigbeeNetworkRequest22setDestinationEndpointEh@Base 0.1.4
 _ZN20ZigbeeNetworkRequest25setDestinationAddressModeEN6Zigbee22DestinationAddressModeE@Base 0.1.4
 _ZN20ZigbeeNetworkRequest25setDestinationIeeeAddressERK13ZigbeeAddress@Base 0.1.4
 _ZN20ZigbeeNetworkRequest26setDestinationShortAddressEt@Base 0.1.4
 _ZN20ZigbeeNetworkRequest7setAsduERK10QByteArray@Base 0.1.4
 _ZN20ZigbeeNetworkRequest9setRadiusEh@Base 0.1.4
 _ZN20ZigbeeNetworkRequestC1Ev@Base 0.1.4
 _ZN20ZigbeeNetworkRequestC2Ev@Base 0.1.4
 _ZN21ZigbeeClusterDoorLock10unlockDoorE10QByteArray@Base 0.1.4
 _ZN21ZigbeeClusterDoorLock11qt_metacallEN11QMetaObject4CallEiPPv@Base 0.1.4
 _ZN21ZigbeeClusterDoorLock11qt_metacastEPKc@Base 0.1.4
 _ZN21ZigbeeClusterDoorLock12setAttributeERK22ZigbeeClusterAttribute@Base 0.1.4
 _ZN21ZigbeeClusterDoorLock16doorStateChangedENS_9DoorStateE@Base 0.1.4
 _ZN21ZigbeeClusterDoorLock16lockStateChangedENS_9LockStateE@Base 0.1.4
 _ZN21ZigbeeClusterDoorLock16staticMetaObjectE@Base 0.1.4
 _ZN21ZigbeeClusterDoorLock21processDataIndicationEN20ZigbeeClusterLibrary5FrameE@Base 0.1.4
 _ZN21ZigbeeClusterDoorLock21unlockDoorWithTimeoutEt10QByteArray@Base 0.1.4
 _ZN21ZigbeeClusterDoorLock6toggleE10QByteArray@Base 0.1.4
 _ZN21ZigbeeClusterDoorLock8lockDoorE10QByteArray@Base 0.1.4
 _ZN21ZigbeeClusterDoorLockC1EP13ZigbeeNetworkP10ZigbeeNodeP18ZigbeeNodeEndpointN13ZigbeeCluster9DirectionEP7QObject@Base 0.1.4
 _ZN21ZigbeeClusterDoorLockC2EP13ZigbeeNetworkP10ZigbeeNodeP18ZigbeeNodeEndpointN13ZigbeeCluster9DirectionEP7QObject@Base 0.1.4
 _ZN21ZigbeeClusterIdentify11qt_metacallEN11QMetaObject4CallEiPPv@Base 0.1.4
 _ZN21ZigbeeClusterIdentify11qt_metacastEPKc@Base 0.1.4
 _ZN21ZigbeeClusterIdentify12setAttributeERK22ZigbeeClusterAttribute@Base 0.1.4
 _ZN21ZigbeeClusterIdentify13identifyQueryEv@Base 0.1.4
 _ZN21ZigbeeClusterIdentify13triggerEffectENS_6EffectEh@Base 0.1.4
 _ZN21ZigbeeClusterIdentify16staticMetaObjectE@Base 0.1.4
 _ZN21ZigbeeClusterIdentify21processDataIndicationEN20ZigbeeClusterLibrary5FrameE@Base 0.1.4
 _ZN21ZigbeeClusterIdentify8identifyEt@Base 0.1.4
 _ZN21ZigbeeClusterIdentifyC1EP13ZigbeeNetworkP10ZigbeeNodeP18ZigbeeNodeEndpointN13ZigbeeCluster9DirectionEP7QObject@Base 0.1.4
 _ZN21ZigbeeClusterIdentifyC2EP13ZigbeeNetworkP10ZigbeeNodeP18ZigbeeNodeEndpointN13ZigbeeCluster9DirectionEP7QObject@Base 0.1.4
 _ZN21ZigbeeInterfaceDeconz10escapeDataERK10QByteArray@Base 0.1.4
 _ZN21ZigbeeInterfaceDeconz11onReadyReadEv@Base 0.1.4
 _ZN21ZigbeeInterfaceDeconz11qt_metacallEN11QMetaObject4CallEiPPv@Base 0.1.4
 _ZN21ZigbeeInterfaceDeconz11qt_metacastEPKc@Base 0.1.4
 _ZN21ZigbeeInterfaceDeconz11sendPackageERK10QByteArray@Base 0.1.4
 _ZN21ZigbeeInterfaceDeconz12calculateCrcERK10QByteArray@Base 0.1.4
 _ZN21ZigbeeInterfaceDeconz12setAvailableEb@Base 0.1.4
 _ZN21ZigbeeInterfaceDeconz12unescapeDataERK10QByteArray@Base 0.1.4
 _ZN21ZigbeeInterfaceDeconz15packageReceivedERK10QByteArray@Base 0.1.4
 _ZN21ZigbeeInterfaceDeconz16availableChangedEb@Base 0.1.4
 _ZN21ZigbeeInterfaceDeconz16staticMetaObjectE@Base 0.1.4
 _ZN21ZigbeeInterfaceDeconz18onReconnectTimeoutEv@Base 0.1.4
 _ZN21ZigbeeInterfaceDeconz19reconnectControllerEv@Base 0.1.4
 _ZN21ZigbeeInterfaceDeconz6enableERK7QStringi@Base 0.1.4
 _ZN21ZigbeeInterfaceDeconz7disableEv@Base 0.1.4
 _ZN21ZigbeeInterfaceDeconz7onErrorERKN11QSerialPort15SerialPortErrorE@Base 0.1.4
 _ZN21ZigbeeInterfaceDeconzC1EP7QObject@Base 0.1.4
 _ZN21ZigbeeInterfaceDeconzC2EP7QObject@Base 0.1.4
 _ZN21ZigbeeInterfaceDeconzD0Ev@Base 0.1.4
 _ZN21ZigbeeInterfaceDeconzD1Ev@Base 0.1.4
 _ZN21ZigbeeInterfaceDeconzD2Ev@Base 0.1.4
 _ZN21ZigbeeNetworkDatabase10removeNodeEP10ZigbeeNode@Base 0.1.4
 _ZN21ZigbeeNetworkDatabase11createTableERK7QStringS2_@Base 0.1.4
 _ZN21ZigbeeNetworkDatabase11qt_metacallEN11QMetaObject4CallEiPPv@Base 0.1.4
 _ZN21ZigbeeNetworkDatabase11qt_metacastEPKc@Base 0.1.4
 _ZN21ZigbeeNetworkDatabase12initDatabaseEv@Base 0.1.4
 _ZN21ZigbeeNetworkDatabase12wipeDatabaseEv@Base 0.1.4
 _ZN21ZigbeeNetworkDatabase13createIndicesERK7QStringS2_S2_@Base 0.1.4
 _ZN21ZigbeeNetworkDatabase13saveAttributeEP13ZigbeeClusterRK22ZigbeeClusterAttribute@Base 0.1.4
 _ZN21ZigbeeNetworkDatabase13updateNodeLqiEP10ZigbeeNodeh@Base 0.1.4
 _ZN21ZigbeeNetworkDatabase16saveInputClusterEP13ZigbeeCluster@Base 0.1.4
 _ZN21ZigbeeNetworkDatabase16saveNodeEndpointEP18ZigbeeNodeEndpoint@Base 0.1.4
 _ZN21ZigbeeNetworkDatabase16staticMetaObjectE@Base 0.1.4
 _ZN21ZigbeeNetworkDatabase17saveOutputClusterEP13ZigbeeCluster@Base 0.1.4
 _ZN21ZigbeeNetworkDatabase18updateNodeLastSeenEP10ZigbeeNodeRK9QDateTime@Base 0.1.4
 _ZN21ZigbeeNetworkDatabase24updateNodeNetworkAddressEP10ZigbeeNodet@Base 0.1.4
 _ZN21ZigbeeNetworkDatabase8saveNodeEP10ZigbeeNode@Base 0.1.4
 _ZN21ZigbeeNetworkDatabase9loadNodesEv@Base 0.1.4
 _ZN21ZigbeeNetworkDatabaseC1EP13ZigbeeNetworkRK7QStringP7QObject@Base 0.1.4
 _ZN21ZigbeeNetworkDatabaseC2EP13ZigbeeNetworkRK7QStringP7QObject@Base 0.1.4
 _ZN21ZigbeeNetworkDatabaseD0Ev@Base 0.1.4
 _ZN21ZigbeeNetworkDatabaseD1Ev@Base 0.1.4
 _ZN21ZigbeeNetworkDatabaseD2Ev@Base 0.1.4
 _ZN22ZigbeeBridgeController11qt_metacallEN11QMetaObject4CallEiPPv@Base 0.1.4
 _ZN22ZigbeeBridgeController11qt_metacastEPKc@Base 0.1.4
 _ZN22ZigbeeBridgeController12setAvailableEb@Base 0.1.4
 _ZN22ZigbeeBridgeController15updateAvailableERK7QString@Base 0.1.4
 _ZN22ZigbeeBridgeController16availableChangedEb@Base 0.1.4
 _ZN22ZigbeeBridgeController16canUpdateChangedEb@Base 0.1.4
 _ZN22ZigbeeBridgeController16staticMetaObjectE@Base 0.1.4
 _ZN22ZigbeeBridgeController18apsDataAckReceivedERKN6Zigbee12ApsdeDataAckE@Base 0.1.4
 _ZN22ZigbeeBridgeController18setFirmwareVersionERK7QString@Base 0.1.4
 _ZN22ZigbeeBridgeController19startFirmwareUpdateEv@Base 0.1.4
 _ZN22ZigbeeBridgeController20setSettingsDirectoryERK4QDir@Base 0.1.4
 _ZN22ZigbeeBridgeController20updateRunningChangedEb@Base 0.1.4
 _ZN22ZigbeeBridgeController22apsDataConfirmReceivedERKN6Zigbee16ApsdeDataConfirmE@Base 0.1.4
 _ZN22ZigbeeBridgeController22firmwareVersionChangedERK7QString@Base 0.1.4
 _ZN22ZigbeeBridgeController23startFactoryResetUpdateEv@Base 0.1.4
 _ZN22ZigbeeBridgeController24initializeUpdateProviderEv@Base 0.1.4
 _ZN22ZigbeeBridgeController25apsDataIndicationReceivedERKN6Zigbee19ApsdeDataIndicationE@Base 0.1.4
 _ZN22ZigbeeBridgeControllerC1EP7QObject@Base 0.1.4
 _ZN22ZigbeeBridgeControllerC2EP7QObject@Base 0.1.4
 _ZN22ZigbeeClusterAttributeC1ERKS_@Base 0.1.4
 _ZN22ZigbeeClusterAttributeC1EtRK14ZigbeeDataType@Base 0.1.4
 _ZN22ZigbeeClusterAttributeC1Ev@Base 0.1.4
 _ZN22ZigbeeClusterAttributeC2ERKS_@Base 0.1.4
 _ZN22ZigbeeClusterAttributeC2EtRK14ZigbeeDataType@Base 0.1.4
 _ZN22ZigbeeClusterAttributeC2Ev@Base 0.1.4
 _ZN22ZigbeeClusterAttributeaSERKS_@Base 0.1.4
 _ZN23ZigbeeClusterThermostat11qt_metacallEN11QMetaObject4CallEiPPv@Base 0.1.4
 _ZN23ZigbeeClusterThermostat11qt_metacastEPKc@Base 0.1.4
 _ZN23ZigbeeClusterThermostat16staticMetaObjectE@Base 0.1.4
 _ZN23ZigbeeClusterThermostat21processDataIndicationEN20ZigbeeClusterLibrary5FrameE@Base 0.1.4
 _ZN23ZigbeeClusterThermostatC1EP13ZigbeeNetworkP10ZigbeeNodeP18ZigbeeNodeEndpointN13ZigbeeCluster9DirectionEP7QObject@Base 0.1.4
 _ZN23ZigbeeClusterThermostatC2EP13ZigbeeNetworkP10ZigbeeNodeP18ZigbeeNodeEndpointN13ZigbeeCluster9DirectionEP7QObject@Base 0.1.4
 _ZN23ZigbeeDeviceObjectReply11qt_metacallEN11QMetaObject4CallEiPPv@Base 0.1.4
 _ZN23ZigbeeDeviceObjectReply11qt_metacastEPKc@Base 0.1.4
 _ZN23ZigbeeDeviceObjectReply16staticMetaObjectE@Base 0.1.4
 _ZN23ZigbeeDeviceObjectReply18setZigbeeApsStatusEN6Zigbee15ZigbeeApsStatusE@Base 0.1.4
 _ZN23ZigbeeDeviceObjectReply23setZigbeeMacLayerStatusEN6Zigbee20ZigbeeMacLayerStatusE@Base 0.1.4
 _ZN23ZigbeeDeviceObjectReply23setZigbeeNwkLayerStatusEN6Zigbee20ZigbeeNwkLayerStatusE@Base 0.1.4
 _ZN23ZigbeeDeviceObjectReply27setZigbeeDeviceObjectStatusEN19ZigbeeDeviceProfile6StatusE@Base 0.1.4
 _ZN23ZigbeeDeviceObjectReply8finishedEv@Base 0.1.4
 _ZN23ZigbeeDeviceObjectReplyC1ERK20ZigbeeNetworkRequestP7QObject@Base 0.1.4
 _ZN23ZigbeeDeviceObjectReplyC2ERK20ZigbeeNetworkRequestP7QObject@Base 0.1.4
 _ZN23ZigbeeInterfaceNxpReply11qt_metacallEN11QMetaObject4CallEiPPv@Base 0.1.4
 _ZN23ZigbeeInterfaceNxpReply11qt_metacastEPKc@Base 0.1.4
 _ZN23ZigbeeInterfaceNxpReply11requestNameEv@Base 0.1.4
 _ZN23ZigbeeInterfaceNxpReply11setFinishedEv@Base 0.1.4
 _ZN23ZigbeeInterfaceNxpReply16staticMetaObjectE@Base 0.1.4
 _ZN23ZigbeeInterfaceNxpReply5abortEv@Base 0.1.4
 _ZN23ZigbeeInterfaceNxpReply7timeoutEv@Base 0.1.4
 _ZN23ZigbeeInterfaceNxpReply8finishedEv@Base 0.1.4
 _ZN23ZigbeeInterfaceNxpReply9onTimeoutEv@Base 0.1.4
 _ZN23ZigbeeInterfaceNxpReplyC1EN3Nxp7CommandEP7QObject@Base 0.1.4
 _ZN23ZigbeeInterfaceNxpReplyC2EN3Nxp7CommandEP7QObject@Base 0.1.4
 _ZN24FirmwareUpdateHandlerNxp11qt_metacallEN11QMetaObject4CallEiPPv@Base 0.1.4
 _ZN24FirmwareUpdateHandlerNxp11qt_metacastEPKc@Base 0.1.4
 _ZN24FirmwareUpdateHandlerNxp11startUpdateEv@Base 0.1.4
 _ZN24FirmwareUpdateHandlerNxp14updateFinishedEb@Base 0.1.4
 _ZN24FirmwareUpdateHandlerNxp16staticMetaObjectE@Base 0.1.4
 _ZN24FirmwareUpdateHandlerNxp17startFactoryResetEv@Base 0.1.4
 _ZN24FirmwareUpdateHandlerNxp20updateRunningChangedEb@Base 0.1.4
 _ZN24FirmwareUpdateHandlerNxp23initiallyFlashedChangedEb@Base 0.1.4
 _ZN24FirmwareUpdateHandlerNxpC1EP7QObject@Base 0.1.4
 _ZN24FirmwareUpdateHandlerNxpC1ERK9QFileInfoP7QObject@Base 0.1.4
 _ZN24FirmwareUpdateHandlerNxpC2EP7QObject@Base 0.1.4
 _ZN24FirmwareUpdateHandlerNxpC2ERK9QFileInfoP7QObject@Base 0.1.4
 _ZN24ZigbeeClusterAnalogInput11qt_metacallEN11QMetaObject4CallEiPPv@Base 0.1.4
 _ZN24ZigbeeClusterAnalogInput11qt_metacastEPKc@Base 0.1.4
 _ZN24ZigbeeClusterAnalogInput12setAttributeERK22ZigbeeClusterAttribute@Base 0.1.4
 _ZN24ZigbeeClusterAnalogInput16staticMetaObjectE@Base 0.1.4
 _ZN24ZigbeeClusterAnalogInputC1EP13ZigbeeNetworkP10ZigbeeNodeP18ZigbeeNodeEndpointN13ZigbeeCluster9DirectionEP7QObject@Base 0.1.4
 _ZN24ZigbeeClusterAnalogInputC2EP13ZigbeeNetworkP10ZigbeeNodeP18ZigbeeNodeEndpointN13ZigbeeCluster9DirectionEP7QObject@Base 0.1.4
 _ZN24ZigbeeClusterAnalogValue11qt_metacallEN11QMetaObject4CallEiPPv@Base 0.1.4
 _ZN24ZigbeeClusterAnalogValue11qt_metacastEPKc@Base 0.1.4
 _ZN24ZigbeeClusterAnalogValue12setAttributeERK22ZigbeeClusterAttribute@Base 0.1.4
 _ZN24ZigbeeClusterAnalogValue16staticMetaObjectE@Base 0.1.4
 _ZN24ZigbeeClusterAnalogValueC1EP13ZigbeeNetworkP10ZigbeeNodeP18ZigbeeNodeEndpointN13ZigbeeCluster9DirectionEP7QObject@Base 0.1.4
 _ZN24ZigbeeClusterAnalogValueC2EP13ZigbeeNetworkP10ZigbeeNodeP18ZigbeeNodeEndpointN13ZigbeeCluster9DirectionEP7QObject@Base 0.1.4
 _ZN24ZigbeeClusterBinaryInput11qt_metacallEN11QMetaObject4CallEiPPv@Base 0.1.4
 _ZN24ZigbeeClusterBinaryInput11qt_metacastEPKc@Base 0.1.4
 _ZN24ZigbeeClusterBinaryInput12setAttributeERK22ZigbeeClusterAttribute@Base 0.1.4
 _ZN24ZigbeeClusterBinaryInput16staticMetaObjectE@Base 0.1.4
 _ZN24ZigbeeClusterBinaryInput19presentValueChangedEb@Base 0.1.4
 _ZN24ZigbeeClusterBinaryInputC1EP13ZigbeeNetworkP10ZigbeeNodeP18ZigbeeNodeEndpointN13ZigbeeCluster9DirectionEP7QObject@Base 0.1.4
 _ZN24ZigbeeClusterBinaryInputC2EP13ZigbeeNetworkP10ZigbeeNodeP18ZigbeeNodeEndpointN13ZigbeeCluster9DirectionEP7QObject@Base 0.1.4
 _ZN24ZigbeeClusterBinaryValue11qt_metacallEN11QMetaObject4CallEiPPv@Base 0.1.4
 _ZN24ZigbeeClusterBinaryValue11qt_metacastEPKc@Base 0.1.4
 _ZN24ZigbeeClusterBinaryValue12setAttributeERK22ZigbeeClusterAttribute@Base 0.1.4
 _ZN24ZigbeeClusterBinaryValue16staticMetaObjectE@Base 0.1.4
 _ZN24ZigbeeClusterBinaryValueC1EP13ZigbeeNetworkP10ZigbeeNodeP18ZigbeeNodeEndpointN13ZigbeeCluster9DirectionEP7QObject@Base 0.1.4
 _ZN24ZigbeeClusterBinaryValueC2EP13ZigbeeNetworkP10ZigbeeNodeP18ZigbeeNodeEndpointN13ZigbeeCluster9DirectionEP7QObject@Base 0.1.4
 _ZN24ZigbeeUartAdapterMonitor11qt_metacallEN11QMetaObject4CallEiPPv@Base 0.1.4
 _ZN24ZigbeeUartAdapterMonitor11qt_metacastEPKc@Base 0.1.4
 _ZN24ZigbeeUartAdapterMonitor12adapterAddedERK17ZigbeeUartAdapter@Base 0.1.4
 _ZN24ZigbeeUartAdapterMonitor14adapterRemovedERK17ZigbeeUartAdapter@Base 0.1.4
 _ZN24ZigbeeUartAdapterMonitor16staticMetaObjectE@Base 0.1.4
 _ZN24ZigbeeUartAdapterMonitor20addAdapterInternallyERK7QString@Base 0.1.4
 _ZN24ZigbeeUartAdapterMonitorC1EP7QObject@Base 0.1.4
 _ZN24ZigbeeUartAdapterMonitorC2EP7QObject@Base 0.1.4
 _ZN24ZigbeeUartAdapterMonitorD0Ev@Base 0.1.4
 _ZN24ZigbeeUartAdapterMonitorD1Ev@Base 0.1.4
 _ZN24ZigbeeUartAdapterMonitorD2Ev@Base 0.1.4
 _ZN25ZigbeeBridgeControllerNxp11createReplyEN3Nxp7CommandEhRK7QStringRK10QByteArrayP7QObject@Base 0.1.4
 _ZN25ZigbeeBridgeControllerNxp11qt_metacallEN11QMetaObject4CallEiPPv@Base 0.1.4
 _ZN25ZigbeeBridgeControllerNxp11qt_metacastEPKc@Base 0.1.4
 _ZN25ZigbeeBridgeControllerNxp14requestVersionEv@Base 0.1.4
 _ZN25ZigbeeBridgeControllerNxp15requestSetPanIdEy@Base 0.1.4
 _ZN25ZigbeeBridgeControllerNxp15sendNextRequestEv@Base 0.1.4
 _ZN25ZigbeeBridgeControllerNxp15updateAvailableERK7QString@Base 0.1.4
 _ZN25ZigbeeBridgeControllerNxp16staticMetaObjectE@Base 0.1.4
 _ZN25ZigbeeBridgeControllerNxp18bumpSequenceNumberEv@Base 0.1.4
 _ZN25ZigbeeBridgeControllerNxp18requestSendRequestERK20ZigbeeNetworkRequest@Base 0.1.4
 _ZN25ZigbeeBridgeControllerNxp19requestNetworkStateEv@Base 0.1.4
 _ZN25ZigbeeBridgeControllerNxp19requestStartNetworkEv@Base 0.1.4
 _ZN25ZigbeeBridgeControllerNxp19startFirmwareUpdateEv@Base 0.1.4
 _ZN25ZigbeeBridgeControllerNxp21requestSetChannelMaskEj@Base 0.1.4
 _ZN25ZigbeeBridgeControllerNxp21requestSetSecurityKeyEN3Nxp7KeyTypeERK16ZigbeeNetworkKey@Base 0.1.4
 _ZN25ZigbeeBridgeControllerNxp22controllerStateChangedENS_15ControllerStateE@Base 0.1.4
 _ZN25ZigbeeBridgeControllerNxp22refreshControllerStateEv@Base 0.1.4
 _ZN25ZigbeeBridgeControllerNxp22requestControllerStateEv@Base 0.1.4
 _ZN25ZigbeeBridgeControllerNxp23startFactoryResetUpdateEv@Base 0.1.4
 _ZN25ZigbeeBridgeControllerNxp24initializeUpdateProviderEv@Base 0.1.4
 _ZN25ZigbeeBridgeControllerNxp26onInterfacePackageReceivedERK10QByteArray@Base 0.1.4
 _ZN25ZigbeeBridgeControllerNxp26requestSoftResetControllerEv@Base 0.1.4
 _ZN25ZigbeeBridgeControllerNxp27onInterfaceAvailableChangedEb@Base 0.1.4
 _ZN25ZigbeeBridgeControllerNxp27requestEnqueueSendDataGroupEhttthRK10QByteArray6QFlagsIN6Zigbee14ZigbeeTxOptionEEh@Base 0.1.4
 _ZN25ZigbeeBridgeControllerNxp29interfaceNotificationReceivedEN3Nxp12NotificationERK10QByteArray@Base 0.1.4
 _ZN25ZigbeeBridgeControllerNxp29requestFactoryResetControllerEv@Base 0.1.4
 _ZN25ZigbeeBridgeControllerNxp31requestSetPermitJoinCoordinatorEh@Base 0.1.4
 _ZN25ZigbeeBridgeControllerNxp33requestEnqueueSendDataIeeeAddressEh13ZigbeeAddresshtthRK10QByteArray6QFlagsIN6Zigbee14ZigbeeTxOptionEEh@Base 0.1.4
 _ZN25ZigbeeBridgeControllerNxp34requestEnqueueSendDataShortAddressEhthtthRK10QByteArray6QFlagsIN6Zigbee14ZigbeeTxOptionEEh@Base 0.1.4
 _ZN25ZigbeeBridgeControllerNxp6enableERK7QStringi@Base 0.1.4
 _ZN25ZigbeeBridgeControllerNxp7disableEv@Base 0.1.4
 _ZN25ZigbeeBridgeControllerNxp8nodeLeftERK13ZigbeeAddressb@Base 0.1.4
 _ZN25ZigbeeBridgeControllerNxpC1EP7QObject@Base 0.1.4
 _ZN25ZigbeeBridgeControllerNxpC2EP7QObject@Base 0.1.4
 _ZN25ZigbeeBridgeControllerNxpD0Ev@Base 0.1.4
 _ZN25ZigbeeBridgeControllerNxpD1Ev@Base 0.1.4
 _ZN25ZigbeeBridgeControllerNxpD2Ev@Base 0.1.4
 _ZN25ZigbeeClusterAnalogOutput11qt_metacallEN11QMetaObject4CallEiPPv@Base 0.1.4
 _ZN25ZigbeeClusterAnalogOutput11qt_metacastEPKc@Base 0.1.4
 _ZN25ZigbeeClusterAnalogOutput12setAttributeERK22ZigbeeClusterAttribute@Base 0.1.4
 _ZN25ZigbeeClusterAnalogOutput16staticMetaObjectE@Base 0.1.4
 _ZN25ZigbeeClusterAnalogOutputC1EP13ZigbeeNetworkP10ZigbeeNodeP18ZigbeeNodeEndpointN13ZigbeeCluster9DirectionEP7QObject@Base 0.1.4
 _ZN25ZigbeeClusterAnalogOutputC2EP13ZigbeeNetworkP10ZigbeeNodeP18ZigbeeNodeEndpointN13ZigbeeCluster9DirectionEP7QObject@Base 0.1.4
 _ZN25ZigbeeClusterBinaryOutput11qt_metacallEN11QMetaObject4CallEiPPv@Base 0.1.4
 _ZN25ZigbeeClusterBinaryOutput11qt_metacastEPKc@Base 0.1.4
 _ZN25ZigbeeClusterBinaryOutput12setAttributeERK22ZigbeeClusterAttribute@Base 0.1.4
 _ZN25ZigbeeClusterBinaryOutput16staticMetaObjectE@Base 0.1.4
 _ZN25ZigbeeClusterBinaryOutputC1EP13ZigbeeNetworkP10ZigbeeNodeP18ZigbeeNodeEndpointN13ZigbeeCluster9DirectionEP7QObject@Base 0.1.4
 _ZN25ZigbeeClusterBinaryOutputC2EP13ZigbeeNetworkP10ZigbeeNodeP18ZigbeeNodeEndpointN13ZigbeeCluster9DirectionEP7QObject@Base 0.1.4
 _ZN25ZigbeeClusterColorControl11qt_metacallEN11QMetaObject4CallEiPPv@Base 0.1.4
 _ZN25ZigbeeClusterColorControl11qt_metacastEPKc@Base 0.1.4
 _ZN25ZigbeeClusterColorControl12setAttributeERK22ZigbeeClusterAttribute@Base 0.1.4
 _ZN25ZigbeeClusterColorControl14commandMoveHueENS_8MoveModeEh@Base 0.1.4
 _ZN25ZigbeeClusterColorControl14commandStepHueENS_8StepModeEhh@Base 0.1.4
 _ZN25ZigbeeClusterColorControl16commandMoveColorEtt@Base 0.1.4
 _ZN25ZigbeeClusterColorControl16commandMoveToHueEhNS_13MoveDirectionEt@Base 0.1.4
 _ZN25ZigbeeClusterColorControl16commandStepColorEttt@Base 0.1.4
 _ZN25ZigbeeClusterColorControl16staticMetaObjectE@Base 0.1.4
 _ZN25ZigbeeClusterColorControl18commandMoveToColorEttt@Base 0.1.4
 _ZN25ZigbeeClusterColorControl19commandColorLoopSetE6QFlagsINS_15ColorLoopUpdateEENS_15ColorLoopActionENS_18ColorLoopDirectionEtt@Base 0.1.4
 _ZN25ZigbeeClusterColorControl19commandStopMoveStepEv@Base 0.1.4
 _ZN25ZigbeeClusterColorControl21commandMoveSaturationENS_8MoveModeEh@Base 0.1.4
 _ZN25ZigbeeClusterColorControl21commandStepSaturationENS_8StepModeEhh@Base 0.1.4
 _ZN25ZigbeeClusterColorControl21processDataIndicationEN20ZigbeeClusterLibrary5FrameE@Base 0.1.4
 _ZN25ZigbeeClusterColorControl22commandEnhancedMoveHueENS_8MoveModeEt@Base 0.1.4
 _ZN25ZigbeeClusterColorControl22commandEnhancedStepHueENS_8StepModeEtt@Base 0.1.4
 _ZN25ZigbeeClusterColorControl23commandMoveToSaturationEhNS_13MoveDirectionEt@Base 0.1.4
 _ZN25ZigbeeClusterColorControl24colorCapabilitiesChangedE6QFlagsINS_15ColorCapabilityEE@Base 0.1.4
 _ZN25ZigbeeClusterColorControl24commandEnhancedMoveToHueEtNS_13MoveDirectionEt@Base 0.1.4
 _ZN25ZigbeeClusterColorControl27commandMoveColorTemperatureENS_8MoveModeEttt@Base 0.1.4
 _ZN25ZigbeeClusterColorControl27commandStepColorTemperatureENS_8StepModeEtttt@Base 0.1.4
 _ZN25ZigbeeClusterColorControl29colorTemperatureMiredsChangedEt@Base 0.1.4
 _ZN25ZigbeeClusterColorControl29commandMoveToColorTemperatureEtt@Base 0.1.4
 _ZN25ZigbeeClusterColorControl29commandMoveToHueAndSaturationEhht@Base 0.1.4
 _ZN25ZigbeeClusterColorControl37commandEnhancedMoveToHueAndSaturationEtht@Base 0.1.4
 _ZN25ZigbeeClusterColorControlC1EP13ZigbeeNetworkP10ZigbeeNodeP18ZigbeeNodeEndpointN13ZigbeeCluster9DirectionEP7QObject@Base 0.1.4
 _ZN25ZigbeeClusterColorControlC2EP13ZigbeeNetworkP10ZigbeeNodeP18ZigbeeNodeEndpointN13ZigbeeCluster9DirectionEP7QObject@Base 0.1.4
 _ZN25ZigbeeClusterLevelControl11commandMoveENS_8MoveModeEh@Base 0.1.4
 _ZN25ZigbeeClusterLevelControl11commandSentENS_7CommandERK10QByteArray@Base 0.1.4
 _ZN25ZigbeeClusterLevelControl11commandStepENS_8StepModeEht@Base 0.1.4
 _ZN25ZigbeeClusterLevelControl11commandStopEv@Base 0.1.4
 _ZN25ZigbeeClusterLevelControl11qt_metacallEN11QMetaObject4CallEiPPv@Base 0.1.4
 _ZN25ZigbeeClusterLevelControl11qt_metacastEPKc@Base 0.1.4
 _ZN25ZigbeeClusterLevelControl12setAttributeERK22ZigbeeClusterAttribute@Base 0.1.4
 _ZN25ZigbeeClusterLevelControl15commandMoveSentEbNS_8MoveModeEh@Base 0.1.4
 _ZN25ZigbeeClusterLevelControl15commandStepSentEbNS_8StepModeEht@Base 0.1.4
 _ZN25ZigbeeClusterLevelControl15commandStopSentEv@Base 0.1.4
 _ZN25ZigbeeClusterLevelControl16staticMetaObjectE@Base 0.1.4
 _ZN25ZigbeeClusterLevelControl18commandMoveToLevelEht@Base 0.1.4
 _ZN25ZigbeeClusterLevelControl19currentLevelChangedEh@Base 0.1.4
 _ZN25ZigbeeClusterLevelControl20commandMoveWithOnOffENS_8MoveModeEh@Base 0.1.4
 _ZN25ZigbeeClusterLevelControl20commandStepWithOnOffENS_8StepModeEht@Base 0.1.4
 _ZN25ZigbeeClusterLevelControl20commandStopWithOnOffEv@Base 0.1.4
 _ZN25ZigbeeClusterLevelControl21processDataIndicationEN20ZigbeeClusterLibrary5FrameE@Base 0.1.4
 _ZN25ZigbeeClusterLevelControl22commandMoveToLevelSentEbht@Base 0.1.4
 _ZN25ZigbeeClusterLevelControl27commandMoveToLevelWithOnOffEht@Base 0.1.4
 _ZN25ZigbeeClusterLevelControlC1EP13ZigbeeNetworkP10ZigbeeNodeP18ZigbeeNodeEndpointN13ZigbeeCluster9DirectionEP7QObject@Base 0.1.4
 _ZN25ZigbeeClusterLevelControlC2EP13ZigbeeNetworkP10ZigbeeNodeP18ZigbeeNodeEndpointN13ZigbeeCluster9DirectionEP7QObject@Base 0.1.4
 _ZN26ZigbeeInterfaceDeconzReply11qt_metacallEN11QMetaObject4CallEiPPv@Base 0.1.4
 _ZN26ZigbeeInterfaceDeconzReply11qt_metacastEPKc@Base 0.1.4
 _ZN26ZigbeeInterfaceDeconzReply11requestNameEv@Base 0.1.4
 _ZN26ZigbeeInterfaceDeconzReply16staticMetaObjectE@Base 0.1.4
 _ZN26ZigbeeInterfaceDeconzReply17setSequenceNumberEh@Base 0.1.4
 _ZN26ZigbeeInterfaceDeconzReply5abortEv@Base 0.1.4
 _ZN26ZigbeeInterfaceDeconzReply7timeoutEv@Base 0.1.4
 _ZN26ZigbeeInterfaceDeconzReply8finishedEv@Base 0.1.4
 _ZN26ZigbeeInterfaceDeconzReply9onTimeoutEv@Base 0.1.4
 _ZN26ZigbeeInterfaceDeconzReplyC1EN6Deconz7CommandEP7QObject@Base 0.1.4
 _ZN26ZigbeeInterfaceDeconzReplyC2EN6Deconz7CommandEP7QObject@Base 0.1.4
 _ZN27ZigbeeSecurityConfiguration13setNetworkKeyERK16ZigbeeNetworkKey@Base 0.1.4
 _ZN27ZigbeeSecurityConfiguration21setZigbeeSecurityModeENS_18ZigbeeSecurityModeE@Base 0.1.4
 _ZN27ZigbeeSecurityConfiguration27setGlobalTrustCenterlinkKeyERK16ZigbeeNetworkKey@Base 0.1.4
 _ZN27ZigbeeSecurityConfiguration5clearEv@Base 0.1.4
 _ZN27ZigbeeSecurityConfigurationC1ERKS_@Base 0.1.4
 _ZN27ZigbeeSecurityConfigurationC1Ev@Base 0.1.4
 _ZN27ZigbeeSecurityConfigurationC2ERKS_@Base 0.1.4
 _ZN27ZigbeeSecurityConfigurationC2Ev@Base 0.1.4
 _ZN27ZigbeeSecurityConfigurationaSERKS_@Base 0.1.4
 _ZN28ZigbeeBridgeControllerDeconz11createReplyEN6Deconz7CommandERK7QStringRK10QByteArrayP7QObject@Base 0.1.4
 _ZN28ZigbeeBridgeControllerDeconz11qt_metacallEN11QMetaObject4CallEiPPv@Base 0.1.4
 _ZN28ZigbeeBridgeControllerDeconz11qt_metacastEPKc@Base 0.1.4
 _ZN28ZigbeeBridgeControllerDeconz14processMacPollERK10QByteArray@Base 0.1.4
 _ZN28ZigbeeBridgeControllerDeconz14requestVersionEv@Base 0.1.4
 _ZN28ZigbeeBridgeControllerDeconz15readDataConfirmEv@Base 0.1.4
 _ZN28ZigbeeBridgeControllerDeconz15sendNextRequestEv@Base 0.1.4
 _ZN28ZigbeeBridgeControllerDeconz16processMacBeaconERK10QByteArray@Base 0.1.4
 _ZN28ZigbeeBridgeControllerDeconz16rebootControllerEv@Base 0.1.4
 _ZN28ZigbeeBridgeControllerDeconz16staticMetaObjectE@Base 0.1.4
 _ZN28ZigbeeBridgeControllerDeconz18processDataConfirmERK10QByteArray@Base 0.1.4
 _ZN28ZigbeeBridgeControllerDeconz18processDeviceStateE17DeconzDeviceState@Base 0.1.4
 _ZN28ZigbeeBridgeControllerDeconz18readDataIndicationEv@Base 0.1.4
 _ZN28ZigbeeBridgeControllerDeconz18requestDeviceStateEv@Base 0.1.4
 _ZN28ZigbeeBridgeControllerDeconz18requestSendRequestERK20ZigbeeNetworkRequest@Base 0.1.4
 _ZN28ZigbeeBridgeControllerDeconz19networkStateChangedEN6Deconz12NetworkStateE@Base 0.1.4
 _ZN28ZigbeeBridgeControllerDeconz20parseDeviceStateFlagEh@Base 0.1.4
 _ZN28ZigbeeBridgeControllerDeconz20reconnectConrtrollerEv@Base 0.1.4
 _ZN28ZigbeeBridgeControllerDeconz20requestReadParameterEN6Deconz9ParameterE@Base 0.1.4
 _ZN28ZigbeeBridgeControllerDeconz21processDataIndicationERK10QByteArray@Base 0.1.4
 _ZN28ZigbeeBridgeControllerDeconz21readNetworkParametersEv@Base 0.1.4
 _ZN28ZigbeeBridgeControllerDeconz21requestWriteParameterEN6Deconz9ParameterERK10QByteArray@Base 0.1.4
 _ZN28ZigbeeBridgeControllerDeconz22generateSequenceNumberEv@Base 0.1.4
 _ZN28ZigbeeBridgeControllerDeconz23resetControllerWatchdogEv@Base 0.1.4
 _ZN28ZigbeeBridgeControllerDeconz24setFirmwareVersionStringERK7QString@Base 0.1.4
 _ZN28ZigbeeBridgeControllerDeconz25requestChangeNetworkStateEN6Deconz12NetworkStateE@Base 0.1.4
 _ZN28ZigbeeBridgeControllerDeconz26onInterfacePackageReceivedERK10QByteArray@Base 0.1.4
 _ZN28ZigbeeBridgeControllerDeconz27onInterfaceAvailableChangedEb@Base 0.1.4
 _ZN28ZigbeeBridgeControllerDeconz27requestEnqueueSendDataGroupEhttthRK10QByteArray6QFlagsIN6Zigbee14ZigbeeTxOptionEEh@Base 0.1.4
 _ZN28ZigbeeBridgeControllerDeconz27requestQuerySendDataConfirmEv@Base 0.1.4
 _ZN28ZigbeeBridgeControllerDeconz33requestEnqueueSendDataIeeeAddressEh13ZigbeeAddresshtthRK10QByteArray6QFlagsIN6Zigbee14ZigbeeTxOptionEEh@Base 0.1.4
 _ZN28ZigbeeBridgeControllerDeconz33requestReadReceivedDataIndicationEN6Deconz17SourceAddressModeE@Base 0.1.4
 _ZN28ZigbeeBridgeControllerDeconz34requestEnqueueSendDataShortAddressEhthtthRK10QByteArray6QFlagsIN6Zigbee14ZigbeeTxOptionEEh@Base 0.1.4
 _ZN28ZigbeeBridgeControllerDeconz36networkConfigurationParameterChangedERK26DeconzNetworkConfiguration@Base 0.1.4
 _ZN28ZigbeeBridgeControllerDeconz6enableERK7QStringi@Base 0.1.4
 _ZN28ZigbeeBridgeControllerDeconz7disableEv@Base 0.1.4
 _ZN28ZigbeeBridgeControllerDeconzC1EP7QObject@Base 0.1.4
 _ZN28ZigbeeBridgeControllerDeconzC2EP7QObject@Base 0.1.4
 _ZN28ZigbeeBridgeControllerDeconzD0Ev@Base 0.1.4
 _ZN28ZigbeeBridgeControllerDeconzD1Ev@Base 0.1.4
 _ZN28ZigbeeBridgeControllerDeconzD2Ev@Base 0.1.4
 _ZN28ZigbeeClusterMultistateInput11qt_metacallEN11QMetaObject4CallEiPPv@Base 0.1.4
 _ZN28ZigbeeClusterMultistateInput11qt_metacastEPKc@Base 0.1.4
 _ZN28ZigbeeClusterMultistateInput12setAttributeERK22ZigbeeClusterAttribute@Base 0.1.4
 _ZN28ZigbeeClusterMultistateInput16staticMetaObjectE@Base 0.1.4
 _ZN28ZigbeeClusterMultistateInputC1EP13ZigbeeNetworkP10ZigbeeNodeP18ZigbeeNodeEndpointN13ZigbeeCluster9DirectionEP7QObject@Base 0.1.4
 _ZN28ZigbeeClusterMultistateInputC2EP13ZigbeeNetworkP10ZigbeeNodeP18ZigbeeNodeEndpointN13ZigbeeCluster9DirectionEP7QObject@Base 0.1.4
 _ZN28ZigbeeClusterMultistateValue11qt_metacallEN11QMetaObject4CallEiPPv@Base 0.1.4
 _ZN28ZigbeeClusterMultistateValue11qt_metacastEPKc@Base 0.1.4
 _ZN28ZigbeeClusterMultistateValue12setAttributeERK22ZigbeeClusterAttribute@Base 0.1.4
 _ZN28ZigbeeClusterMultistateValue16staticMetaObjectE@Base 0.1.4
 _ZN28ZigbeeClusterMultistateValueC1EP13ZigbeeNetworkP10ZigbeeNodeP18ZigbeeNodeEndpointN13ZigbeeCluster9DirectionEP7QObject@Base 0.1.4
 _ZN28ZigbeeClusterMultistateValueC2EP13ZigbeeNetworkP10ZigbeeNodeP18ZigbeeNodeEndpointN13ZigbeeCluster9DirectionEP7QObject@Base 0.1.4
 _ZN29ZigbeeClusterMultistateOutput11qt_metacallEN11QMetaObject4CallEiPPv@Base 0.1.4
 _ZN29ZigbeeClusterMultistateOutput11qt_metacastEPKc@Base 0.1.4
 _ZN29ZigbeeClusterMultistateOutput12setAttributeERK22ZigbeeClusterAttribute@Base 0.1.4
 _ZN29ZigbeeClusterMultistateOutput16staticMetaObjectE@Base 0.1.4
 _ZN29ZigbeeClusterMultistateOutputC1EP13ZigbeeNetworkP10ZigbeeNodeP18ZigbeeNodeEndpointN13ZigbeeCluster9DirectionEP7QObject@Base 0.1.4
 _ZN29ZigbeeClusterMultistateOutputC2EP13ZigbeeNetworkP10ZigbeeNodeP18ZigbeeNodeEndpointN13ZigbeeCluster9DirectionEP7QObject@Base 0.1.4
 _ZN29ZigbeeClusterOccupancySensing11qt_metacallEN11QMetaObject4CallEiPPv@Base 0.1.4
 _ZN29ZigbeeClusterOccupancySensing11qt_metacastEPKc@Base 0.1.4
 _ZN29ZigbeeClusterOccupancySensing12setAttributeERK22ZigbeeClusterAttribute@Base 0.1.4
 _ZN29ZigbeeClusterOccupancySensing16occupancyChangedEb@Base 0.1.4
 _ZN29ZigbeeClusterOccupancySensing16staticMetaObjectE@Base 0.1.4
 _ZN29ZigbeeClusterOccupancySensingC1EP13ZigbeeNetworkP10ZigbeeNodeP18ZigbeeNodeEndpointN13ZigbeeCluster9DirectionEP7QObject@Base 0.1.4
 _ZN29ZigbeeClusterOccupancySensingC2EP13ZigbeeNetworkP10ZigbeeNodeP18ZigbeeNodeEndpointN13ZigbeeCluster9DirectionEP7QObject@Base 0.1.4
 _ZN31ZigbeeClusterPowerConfiguration11qt_metacallEN11QMetaObject4CallEiPPv@Base 0.1.4
 _ZN31ZigbeeClusterPowerConfiguration11qt_metacastEPKc@Base 0.1.4
 _ZN31ZigbeeClusterPowerConfiguration12setAttributeERK22ZigbeeClusterAttribute@Base 0.1.4
 _ZN31ZigbeeClusterPowerConfiguration16staticMetaObjectE@Base 0.1.4
 _ZN31ZigbeeClusterPowerConfiguration24batteryPercentageChangedEd@Base 0.1.4
 _ZN31ZigbeeClusterPowerConfigurationC1EP13ZigbeeNetworkP10ZigbeeNodeP18ZigbeeNodeEndpointN13ZigbeeCluster9DirectionEP7QObject@Base 0.1.4
 _ZN31ZigbeeClusterPowerConfigurationC2EP13ZigbeeNetworkP10ZigbeeNodeP18ZigbeeNodeEndpointN13ZigbeeCluster9DirectionEP7QObject@Base 0.1.4
 _ZN32ZigbeeClusterPressureMeasurement11qt_metacallEN11QMetaObject4CallEiPPv@Base 0.1.4
 _ZN32ZigbeeClusterPressureMeasurement11qt_metacastEPKc@Base 0.1.4
 _ZN32ZigbeeClusterPressureMeasurement12setAttributeERK22ZigbeeClusterAttribute@Base 0.1.4
 _ZN32ZigbeeClusterPressureMeasurement15pressureChangedEd@Base 0.1.4
 _ZN32ZigbeeClusterPressureMeasurement16staticMetaObjectE@Base 0.1.4
 _ZN32ZigbeeClusterPressureMeasurement21pressureScaledChangedEd@Base 0.1.4
 _ZN32ZigbeeClusterPressureMeasurementC1EP13ZigbeeNetworkP10ZigbeeNodeP18ZigbeeNodeEndpointN13ZigbeeCluster9DirectionEP7QObject@Base 0.1.4
 _ZN32ZigbeeClusterPressureMeasurementC2EP13ZigbeeNetworkP10ZigbeeNodeP18ZigbeeNodeEndpointN13ZigbeeCluster9DirectionEP7QObject@Base 0.1.4
 _ZN34ZigbeeClusterIlluminanceMeasurment11qt_metacallEN11QMetaObject4CallEiPPv@Base 0.1.4
 _ZN34ZigbeeClusterIlluminanceMeasurment11qt_metacastEPKc@Base 0.1.4
 _ZN34ZigbeeClusterIlluminanceMeasurment12setAttributeERK22ZigbeeClusterAttribute@Base 0.1.4
 _ZN34ZigbeeClusterIlluminanceMeasurment16staticMetaObjectE@Base 0.1.4
 _ZN34ZigbeeClusterIlluminanceMeasurment18illuminanceChangedEt@Base 0.1.4
 _ZN34ZigbeeClusterIlluminanceMeasurmentC1EP13ZigbeeNetworkP10ZigbeeNodeP18ZigbeeNodeEndpointN13ZigbeeCluster9DirectionEP7QObject@Base 0.1.4
 _ZN34ZigbeeClusterIlluminanceMeasurmentC2EP13ZigbeeNetworkP10ZigbeeNodeP18ZigbeeNodeEndpointN13ZigbeeCluster9DirectionEP7QObject@Base 0.1.4
 _ZN35ZigbeeClusterTemperatureMeasurement11qt_metacallEN11QMetaObject4CallEiPPv@Base 0.1.4
 _ZN35ZigbeeClusterTemperatureMeasurement11qt_metacastEPKc@Base 0.1.4
 _ZN35ZigbeeClusterTemperatureMeasurement12setAttributeERK22ZigbeeClusterAttribute@Base 0.1.4
 _ZN35ZigbeeClusterTemperatureMeasurement16staticMetaObjectE@Base 0.1.4
 _ZN35ZigbeeClusterTemperatureMeasurement18temperatureChangedEd@Base 0.1.4
 _ZN35ZigbeeClusterTemperatureMeasurementC1EP13ZigbeeNetworkP10ZigbeeNodeP18ZigbeeNodeEndpointN13ZigbeeCluster9DirectionEP7QObject@Base 0.1.4
 _ZN35ZigbeeClusterTemperatureMeasurementC2EP13ZigbeeNetworkP10ZigbeeNodeP18ZigbeeNodeEndpointN13ZigbeeCluster9DirectionEP7QObject@Base 0.1.4
 _ZN3Nxp16staticMetaObjectE@Base 0.1.4
 _ZN40ZigbeeClusterManufacturerSpecificPhilips11qt_metacallEN11QMetaObject4CallEiPPv@Base 0.1.4
 _ZN40ZigbeeClusterManufacturerSpecificPhilips11qt_metacastEPKc@Base 0.1.4
 _ZN40ZigbeeClusterManufacturerSpecificPhilips13buttonPressedEhNS_9OperationE@Base 0.1.4
 _ZN40ZigbeeClusterManufacturerSpecificPhilips16staticMetaObjectE@Base 0.1.4
 _ZN40ZigbeeClusterManufacturerSpecificPhilips21processDataIndicationEN20ZigbeeClusterLibrary5FrameE@Base 0.1.4
 _ZN40ZigbeeClusterManufacturerSpecificPhilipsC1EP13ZigbeeNetworkP10ZigbeeNodeP18ZigbeeNodeEndpointN13ZigbeeCluster9DirectionEP7QObject@Base 0.1.4
 _ZN40ZigbeeClusterManufacturerSpecificPhilipsC2EP13ZigbeeNetworkP10ZigbeeNodeP18ZigbeeNodeEndpointN13ZigbeeCluster9DirectionEP7QObject@Base 0.1.4
 _ZN40ZigbeeClusterRelativeHumidityMeasurement11qt_metacallEN11QMetaObject4CallEiPPv@Base 0.1.4
 _ZN40ZigbeeClusterRelativeHumidityMeasurement11qt_metacastEPKc@Base 0.1.4
 _ZN40ZigbeeClusterRelativeHumidityMeasurement12setAttributeERK22ZigbeeClusterAttribute@Base 0.1.4
 _ZN40ZigbeeClusterRelativeHumidityMeasurement15humidityChangedEd@Base 0.1.4
 _ZN40ZigbeeClusterRelativeHumidityMeasurement16staticMetaObjectE@Base 0.1.4
 _ZN40ZigbeeClusterRelativeHumidityMeasurementC1EP13ZigbeeNetworkP10ZigbeeNodeP18ZigbeeNodeEndpointN13ZigbeeCluster9DirectionEP7QObject@Base 0.1.4
 _ZN40ZigbeeClusterRelativeHumidityMeasurementC2EP13ZigbeeNetworkP10ZigbeeNodeP18ZigbeeNodeEndpointN13ZigbeeCluster9DirectionEP7QObject@Base 0.1.4
 _ZN5QHashI7QString17ZigbeeUartAdapterE11deleteNode2EPN9QHashData4NodeE@Base 0.1.4
 _ZN5QHashI7QString17ZigbeeUartAdapterE13duplicateNodeEPN9QHashData4NodeEPv@Base 0.1.4
 _ZN5QHashIN20ZigbeeClusterLibrary9ClusterIdEP13ZigbeeClusterE11deleteNode2EPN9QHashData4NodeE@Base 0.1.4
 _ZN5QHashIN20ZigbeeClusterLibrary9ClusterIdEP13ZigbeeClusterE13duplicateNodeEPN9QHashData4NodeEPv@Base 0.1.4
 _ZN5QHashIhP18ZigbeeClusterReplyE11deleteNode2EPN9QHashData4NodeE@Base 0.1.4
 _ZN5QHashIhP18ZigbeeClusterReplyE13duplicateNodeEPN9QHashData4NodeEPv@Base 0.1.4
 _ZN5QHashIhP18ZigbeeNetworkReplyE11deleteNode2EPN9QHashData4NodeE@Base 0.1.4
 _ZN5QHashIhP18ZigbeeNetworkReplyE13duplicateNodeEPN9QHashData4NodeEPv@Base 0.1.4
 _ZN5QHashIhP23ZigbeeDeviceObjectReplyE11deleteNode2EPN9QHashData4NodeE@Base 0.1.4
 _ZN5QHashIhP23ZigbeeDeviceObjectReplyE13duplicateNodeEPN9QHashData4NodeEPv@Base 0.1.4
 _ZN5QHashIt22ZigbeeClusterAttributeE11deleteNode2EPN9QHashData4NodeE@Base 0.1.4
 _ZN5QHashIt22ZigbeeClusterAttributeE13duplicateNodeEPN9QHashData4NodeEPv@Base 0.1.4
 _ZN6Deconz16staticMetaObjectE@Base 0.1.4
 _ZN6Zigbee16staticMetaObjectE@Base 0.1.4
 _ZN9QtPrivate11QSlotObjectIM10ZigbeeNodeFvP13ZigbeeClusterENS_4ListIJS3_EEEvE4implEiPNS_15QSlotObjectBaseEP7QObjectPPvPb@Base 0.1.4
 _ZN9QtPrivate11QSlotObjectIM13ZigbeeNetworkFvN10ZigbeeNode5StateEENS_4ListIJS3_EEEvE4implEiPNS_15QSlotObjectBaseEP7QObjectPPvPb@Base 0.1.4
 _ZN9QtPrivate11QSlotObjectIM13ZigbeeNetworkFvP13ZigbeeClusterRK22ZigbeeClusterAttributeENS_4ListIJS3_S6_EEEvE4implEiPNS_15QSlotObjectBaseEP7QObjectPPvPb@Base 0.1.4
 _ZN9QtPrivate11QSlotObjectIM13ZigbeeNetworkFvRK7QStringENS_4ListIJS4_EEEvE4implEiPNS_15QSlotObjectBaseEP7QObjectPPvPb@Base 0.1.4
 _ZN9QtPrivate11QSlotObjectIM13ZigbeeNetworkFvvENS_4ListIJEEEvE4implEiPNS_15QSlotObjectBaseEP7QObjectPPvPb@Base 0.1.4
 _ZN9QtPrivate11QSlotObjectIM16ZigbeeNetworkNxpFvN25ZigbeeBridgeControllerNxp15ControllerStateEENS_4ListIJS3_EEEvE4implEiPNS_15QSlotObjectBaseEP7QObjectPPvPb@Base 0.1.4
 _ZN9QtPrivate11QSlotObjectIM16ZigbeeNetworkNxpFvN3Nxp12NotificationERK10QByteArrayENS_4ListIJS3_S6_EEEvE4implEiPNS_15QSlotObjectBaseEP7QObjectPPvPb@Base 0.1.4
 _ZN9QtPrivate11QSlotObjectIM16ZigbeeNetworkNxpFvRK13ZigbeeAddressbENS_4ListIJS4_bEEEvE4implEiPNS_15QSlotObjectBaseEP7QObjectPPvPb@Base 0.1.4
 _ZN9QtPrivate11QSlotObjectIM16ZigbeeNetworkNxpFvRKN6Zigbee12ApsdeDataAckEENS_4ListIJS5_EEEvE4implEiPNS_15QSlotObjectBaseEP7QObjectPPvPb@Base 0.1.4
 _ZN9QtPrivate11QSlotObjectIM16ZigbeeNetworkNxpFvRKN6Zigbee16ApsdeDataConfirmEENS_4ListIJS5_EEEvE4implEiPNS_15QSlotObjectBaseEP7QObjectPPvPb@Base 0.1.4
 _ZN9QtPrivate11QSlotObjectIM16ZigbeeNetworkNxpFvRKN6Zigbee19ApsdeDataIndicationEENS_4ListIJS5_EEEvE4implEiPNS_15QSlotObjectBaseEP7QObjectPPvPb@Base 0.1.4
 _ZN9QtPrivate11QSlotObjectIM16ZigbeeNetworkNxpFvbENS_4ListIJbEEEvE4implEiPNS_15QSlotObjectBaseEP7QObjectPPvPb@Base 0.1.4
 _ZN9QtPrivate11QSlotObjectIM18ZigbeeInterfaceNxpFvvENS_4ListIJEEEvE4implEiPNS_15QSlotObjectBaseEP7QObjectPPvPb@Base 0.1.4
 _ZN9QtPrivate11QSlotObjectIM19ZigbeeNetworkDeconzFvRKN6Zigbee16ApsdeDataConfirmEENS_4ListIJS5_EEEvE4implEiPNS_15QSlotObjectBaseEP7QObjectPPvPb@Base 0.1.4
 _ZN9QtPrivate11QSlotObjectIM19ZigbeeNetworkDeconzFvRKN6Zigbee19ApsdeDataIndicationEENS_4ListIJS5_EEEvE4implEiPNS_15QSlotObjectBaseEP7QObjectPPvPb@Base 0.1.4
 _ZN9QtPrivate11QSlotObjectIM19ZigbeeNetworkDeconzFvbENS_4ListIJbEEEvE4implEiPNS_15QSlotObjectBaseEP7QObjectPPvPb@Base 0.1.4
 _ZN9QtPrivate11QSlotObjectIM19ZigbeeNetworkDeconzFvvENS_4ListIJEEEvE4implEiPNS_15QSlotObjectBaseEP7QObjectPPvPb@Base 0.1.4
 _ZN9QtPrivate11QSlotObjectIM21ZigbeeInterfaceDeconzFvvENS_4ListIJEEEvE4implEiPNS_15QSlotObjectBaseEP7QObjectPPvPb@Base 0.1.4
 _ZN9QtPrivate11QSlotObjectIM23ZigbeeInterfaceNxpReplyFvvENS_4ListIJEEEvE4implEiPNS_15QSlotObjectBaseEP7QObjectPPvPb@Base 0.1.4
 _ZN9QtPrivate11QSlotObjectIM25ZigbeeBridgeControllerNxpFvRK10QByteArrayENS_4ListIJS4_EEEvE4implEiPNS_15QSlotObjectBaseEP7QObjectPPvPb@Base 0.1.4
 _ZN9QtPrivate11QSlotObjectIM25ZigbeeBridgeControllerNxpFvbENS_4ListIJbEEEvE4implEiPNS_15QSlotObjectBaseEP7QObjectPPvPb@Base 0.1.4
 _ZN9QtPrivate11QSlotObjectIM26ZigbeeInterfaceDeconzReplyFvvENS_4ListIJEEEvE4implEiPNS_15QSlotObjectBaseEP7QObjectPPvPb@Base 0.1.4
 _ZN9QtPrivate11QSlotObjectIM28ZigbeeBridgeControllerDeconzFvRK10QByteArrayENS_4ListIJS4_EEEvE4implEiPNS_15QSlotObjectBaseEP7QObjectPPvPb@Base 0.1.4
 _ZN9QtPrivate11QSlotObjectIM28ZigbeeBridgeControllerDeconzFvbENS_4ListIJbEEEvE4implEiPNS_15QSlotObjectBaseEP7QObjectPPvPb@Base 0.1.4
 _ZN9QtPrivate11QSlotObjectIM28ZigbeeBridgeControllerDeconzFvvENS_4ListIJEEEvE4implEiPNS_15QSlotObjectBaseEP7QObjectPPvPb@Base 0.1.4
 _ZN9QtPrivate11QSlotObjectIM7QObjectFvvENS_4ListIJEEEvE4implEiPNS_15QSlotObjectBaseEPS1_PPvPb@Base 0.1.4
 _ZNK10ZigbeeAdpu10metaObjectEv@Base 0.1.4
 _ZNK10ZigbeeAdpu12frameControlEv@Base 0.1.4
 _ZNK10ZigbeeNode10metaObjectEv@Base 0.1.4
 _ZNK10ZigbeeNode11getEndpointEh@Base 0.1.4
 _ZNK10ZigbeeNode11hasEndpointEh@Base 0.1.4
 _ZNK10ZigbeeNode11networkUuidEv@Base 0.1.4
 _ZNK10ZigbeeNode12deviceObjectEv@Base 0.1.4
 _ZNK10ZigbeeNode12shortAddressEv@Base 0.1.4
 _ZNK10ZigbeeNode14nodeDescriptorEv@Base 0.1.4
 _ZNK10ZigbeeNode15extendedAddressEv@Base 0.1.4
 _ZNK10ZigbeeNode15macCapabilitiesEv@Base 0.1.4
 _ZNK10ZigbeeNode15powerDescriptorEv@Base 0.1.4
 _ZNK10ZigbeeNode16manufacturerNameEv@Base 0.1.4
 _ZNK10ZigbeeNode19bindingTableRecordsEv@Base 0.1.4
 _ZNK10ZigbeeNode23nodeDescriptorAvailableEv@Base 0.1.4
 _ZNK10ZigbeeNode24powerDescriptorAvailableEv@Base 0.1.4
 _ZNK10ZigbeeNode3lqiEv@Base 0.1.4
 _ZNK10ZigbeeNode5stateEv@Base 0.1.4
 _ZNK10ZigbeeNode7versionEv@Base 0.1.4
 _ZNK10ZigbeeNode8lastSeenEv@Base 0.1.4
 _ZNK10ZigbeeNode9endpointsEv@Base 0.1.4
 _ZNK10ZigbeeNode9modelNameEv@Base 0.1.4
 _ZNK10ZigbeeNode9reachableEv@Base 0.1.4
 _ZNK11ZigbeeReply10metaObjectEv@Base 0.1.4
 _ZNK11ZigbeeReply5errorEv@Base 0.1.4
 _ZNK13ZigbeeAddress6isNullEv@Base 0.1.4
 _ZNK13ZigbeeAddress8toStringEv@Base 0.1.4
 _ZNK13ZigbeeAddress8toUInt64Ev@Base 0.1.4
 _ZNK13ZigbeeAddresseqERKS_@Base 0.1.4
 _ZNK13ZigbeeAddressltERKS_@Base 0.1.4
 _ZNK13ZigbeeAddressneERKS_@Base 0.1.4
 _ZNK13ZigbeeCluster10attributesEv@Base 0.1.4
 _ZNK13ZigbeeCluster10metaObjectEv@Base 0.1.4
 _ZNK13ZigbeeCluster11clusterNameEv@Base 0.1.4
 _ZNK13ZigbeeCluster12hasAttributeEt@Base 0.1.4
 _ZNK13ZigbeeCluster4nodeEv@Base 0.1.4
 _ZNK13ZigbeeCluster8endpointEv@Base 0.1.4
 _ZNK13ZigbeeCluster9clusterIdEv@Base 0.1.4
 _ZNK13ZigbeeCluster9directionEv@Base 0.1.4
 _ZNK13ZigbeeNetwork10macAddressEv@Base 0.1.4
 _ZNK13ZigbeeNetwork10metaObjectEv@Base 0.1.4
 _ZNK13ZigbeeNetwork11channelMaskEv@Base 0.1.4
 _ZNK13ZigbeeNetwork11networkUuidEv@Base 0.1.4
 _ZNK13ZigbeeNetwork12serialNumberEv@Base 0.1.4
 _ZNK13ZigbeeNetwork13extendedPanIdEv@Base 0.1.4
 _ZNK13ZigbeeNetwork13getZigbeeNodeERK13ZigbeeAddress@Base 0.1.4
 _ZNK13ZigbeeNetwork13getZigbeeNodeEt@Base 0.1.4
 _ZNK13ZigbeeNetwork14serialBaudrateEv@Base 0.1.4
 _ZNK13ZigbeeNetwork14serialPortNameEv@Base 0.1.4
 _ZNK13ZigbeeNetwork15coordinatorNodeEv@Base 0.1.4
 _ZNK13ZigbeeNetwork15firmwareVersionEv@Base 0.1.4
 _ZNK13ZigbeeNetwork17settingsDirectoryEv@Base 0.1.4
 _ZNK13ZigbeeNetwork20hasUninitializedNodeERK13ZigbeeAddress@Base 0.1.4
 _ZNK13ZigbeeNetwork20permitJoiningEnabledEv@Base 0.1.4
 _ZNK13ZigbeeNetwork21permitJoiningDurationEv@Base 0.1.4
 _ZNK13ZigbeeNetwork21securityConfigurationEv@Base 0.1.4
 _ZNK13ZigbeeNetwork22permitJoiningRemainingEv@Base 0.1.4
 _ZNK13ZigbeeNetwork29networkConfigurationAvailableEv@Base 0.1.4
 _ZNK13ZigbeeNetwork5errorEv@Base 0.1.4
 _ZNK13ZigbeeNetwork5nodesEv@Base 0.1.4
 _ZNK13ZigbeeNetwork5stateEv@Base 0.1.4
 _ZNK13ZigbeeNetwork7channelEv@Base 0.1.4
 _ZNK13ZigbeeNetwork7hasNodeERK13ZigbeeAddress@Base 0.1.4
 _ZNK13ZigbeeNetwork7hasNodeEt@Base 0.1.4
 _ZNK14ZigbeeDataType10dataLengthEv@Base 0.1.4
 _ZNK14ZigbeeDataType4dataEv@Base 0.1.4
 _ZNK14ZigbeeDataType4nameEv@Base 0.1.4
 _ZNK14ZigbeeDataType6toBoolEPb@Base 0.1.4
 _ZNK14ZigbeeDataType6toInt8EPb@Base 0.1.4
 _ZNK14ZigbeeDataType7isValidEv@Base 0.1.4
 _ZNK14ZigbeeDataType7toInt16EPb@Base 0.1.4
 _ZNK14ZigbeeDataType7toInt32EPb@Base 0.1.4
 _ZNK14ZigbeeDataType7toInt64EPb@Base 0.1.4
 _ZNK14ZigbeeDataType7toUInt8EPb@Base 0.1.4
 _ZNK14ZigbeeDataType8dataTypeEv@Base 0.1.4
 _ZNK14ZigbeeDataType8toStringEPb@Base 0.1.4
 _ZNK14ZigbeeDataType8toUInt16EPb@Base 0.1.4
 _ZNK14ZigbeeDataType8toUInt32EPb@Base 0.1.4
 _ZNK14ZigbeeDataType8toUInt64EPb@Base 0.1.4
 _ZNK14ZigbeeDataType9classNameEv@Base 0.1.4
 _ZNK14ZigbeeDataTypeeqERKS_@Base 0.1.4
 _ZNK14ZigbeeDataTypeneERKS_@Base 0.1.4
 _ZNK16ZigbeeClusterOta10metaObjectEv@Base 0.1.4
 _ZNK16ZigbeeNetworkKey11toByteArrayEv@Base 0.1.4
 _ZNK16ZigbeeNetworkKey6isNullEv@Base 0.1.4
 _ZNK16ZigbeeNetworkKey7isValidEv@Base 0.1.4
 _ZNK16ZigbeeNetworkKey8toStringEv@Base 0.1.4
 _ZNK16ZigbeeNetworkKeyeqERKS_@Base 0.1.4
 _ZNK16ZigbeeNetworkKeyneERKS_@Base 0.1.4
 _ZNK16ZigbeeNetworkNxp10metaObjectEv@Base 0.1.4
 _ZNK16ZigbeeNetworkNxp11backendTypeEv@Base 0.1.4
 _ZNK16ZigbeeNetworkNxp16bridgeControllerEv@Base 0.1.4
 _ZNK17ZigbeeChannelMask12channelArrayEv@Base 0.1.4
 _ZNK17ZigbeeChannelMask5isSetEN6Zigbee13ZigbeeChannelE@Base 0.1.4
 _ZNK17ZigbeeChannelMask8channelsEv@Base 0.1.4
 _ZNK17ZigbeeChannelMask8toUInt32Ev@Base 0.1.4
 _ZNK17ZigbeeChannelMaskeqERKS_@Base 0.1.4
 _ZNK17ZigbeeChannelMaskneERKS_@Base 0.1.4
 _ZNK17ZigbeeUartAdapter10serialPortEv@Base 0.1.4
 _ZNK17ZigbeeUartAdapter11descriptionEv@Base 0.1.4
 _ZNK17ZigbeeUartAdapter12serialNumberEv@Base 0.1.4
 _ZNK17ZigbeeUartAdapter13zigbeeBackendEv@Base 0.1.4
 _ZNK17ZigbeeUartAdapter18hardwareRecognizedEv@Base 0.1.4
 _ZNK17ZigbeeUartAdapter4nameEv@Base 0.1.4
 _ZNK17ZigbeeUartAdapter8baudRateEv@Base 0.1.4
 _ZNK18ZigbeeClusterBasic10metaObjectEv@Base 0.1.4
 _ZNK18ZigbeeClusterOnOff10metaObjectEv@Base 0.1.4
 _ZNK18ZigbeeClusterOnOff5powerEv@Base 0.1.4
 _ZNK18ZigbeeClusterReply10isCompleteEv@Base 0.1.4
 _ZNK18ZigbeeClusterReply10metaObjectEv@Base 0.1.4
 _ZNK18ZigbeeClusterReply12requestFrameEv@Base 0.1.4
 _ZNK18ZigbeeClusterReply12responseDataEv@Base 0.1.4
 _ZNK18ZigbeeClusterReply13responseFrameEv@Base 0.1.4
 _ZNK18ZigbeeClusterReply15zigbeeApsStatusEv@Base 0.1.4
 _ZNK18ZigbeeClusterReply15zigbeeMacStatusEv@Base 0.1.4
 _ZNK18ZigbeeClusterReply15zigbeeNwkStatusEv@Base 0.1.4
 _ZNK18ZigbeeClusterReply25transactionSequenceNumberEv@Base 0.1.4
 _ZNK18ZigbeeClusterReply5errorEv@Base 0.1.4
 _ZNK18ZigbeeClusterReply7requestEv@Base 0.1.4
 _ZNK18ZigbeeDeviceObject10metaObjectEv@Base 0.1.4
 _ZNK18ZigbeeInterfaceNxp10metaObjectEv@Base 0.1.4
 _ZNK18ZigbeeInterfaceNxp10serialPortEv@Base 0.1.4
 _ZNK18ZigbeeInterfaceNxp9availableEv@Base 0.1.4
 _ZNK18ZigbeeManufacturer2idEv@Base 0.1.4
 _ZNK18ZigbeeManufacturer4nameEv@Base 0.1.4
 _ZNK18ZigbeeNetworkReply10metaObjectEv@Base 0.1.4
 _ZNK18ZigbeeNetworkReply15zigbeeApsStatusEv@Base 0.1.4
 _ZNK18ZigbeeNetworkReply15zigbeeMacStatusEv@Base 0.1.4
 _ZNK18ZigbeeNetworkReply15zigbeeNwkStatusEv@Base 0.1.4
 _ZNK18ZigbeeNetworkReply5errorEv@Base 0.1.4
 _ZNK18ZigbeeNetworkReply7requestEv@Base 0.1.4
 _ZNK18ZigbeeNodeEndpoint10endpointIdEv@Base 0.1.4
 _ZNK18ZigbeeNodeEndpoint10metaObjectEv@Base 0.1.4
 _ZNK18ZigbeeNodeEndpoint11initializedEv@Base 0.1.4
 _ZNK18ZigbeeNodeEndpoint13deviceVersionEv@Base 0.1.4
 _ZNK18ZigbeeNodeEndpoint13inputClustersEv@Base 0.1.4
 _ZNK18ZigbeeNodeEndpoint14outputClustersEv@Base 0.1.4
 _ZNK18ZigbeeNodeEndpoint15getInputClusterEN20ZigbeeClusterLibrary9ClusterIdE@Base 0.1.4
 _ZNK18ZigbeeNodeEndpoint15hasInputClusterEN20ZigbeeClusterLibrary9ClusterIdE@Base 0.1.4
 _ZNK18ZigbeeNodeEndpoint15modelIdentifierEv@Base 0.1.4
 _ZNK18ZigbeeNodeEndpoint15softwareBuildIdEv@Base 0.1.4
 _ZNK18ZigbeeNodeEndpoint16getOutputClusterEN20ZigbeeClusterLibrary9ClusterIdE@Base 0.1.4
 _ZNK18ZigbeeNodeEndpoint16hasOutputClusterEN20ZigbeeClusterLibrary9ClusterIdE@Base 0.1.4
 _ZNK18ZigbeeNodeEndpoint16manufacturerNameEv@Base 0.1.4
 _ZNK18ZigbeeNodeEndpoint4nodeEv@Base 0.1.4
 _ZNK18ZigbeeNodeEndpoint7profileEv@Base 0.1.4
 _ZNK18ZigbeeNodeEndpoint8deviceIdEv@Base 0.1.4
 _ZNK19ZigbeeClusterGroups10metaObjectEv@Base 0.1.4
 _ZNK19ZigbeeClusterScenes10metaObjectEv@Base 0.1.4
 _ZNK19ZigbeeNetworkDeconz10metaObjectEv@Base 0.1.4
 _ZNK19ZigbeeNetworkDeconz11backendTypeEv@Base 0.1.4
 _ZNK19ZigbeeNetworkDeconz16bridgeControllerEv@Base 0.1.4
 _ZNK20ZigbeeClusterIasZone10metaObjectEv@Base 0.1.4
 _ZNK20ZigbeeClusterIasZone10zoneStatusEv@Base 0.1.4
 _ZNK20ZigbeeClusterIasZone8zoneTypeEv@Base 0.1.4
 _ZNK20ZigbeeClusterIasZone9zoneStateEv@Base 0.1.4
 _ZNK20ZigbeeNetworkRequest14sourceEndpointEv@Base 0.1.4
 _ZNK20ZigbeeNetworkRequest19destinationEndpointEv@Base 0.1.4
 _ZNK20ZigbeeNetworkRequest22destinationAddressModeEv@Base 0.1.4
 _ZNK20ZigbeeNetworkRequest22destinationIeeeAddressEv@Base 0.1.4
 _ZNK20ZigbeeNetworkRequest23destinationShortAddressEv@Base 0.1.4
 _ZNK20ZigbeeNetworkRequest4asduEv@Base 0.1.4
 _ZNK20ZigbeeNetworkRequest6radiusEv@Base 0.1.4
 _ZNK20ZigbeeNetworkRequest9clusterIdEv@Base 0.1.4
 _ZNK20ZigbeeNetworkRequest9profileIdEv@Base 0.1.4
 _ZNK20ZigbeeNetworkRequest9requestIdEv@Base 0.1.4
 _ZNK20ZigbeeNetworkRequest9txOptionsEv@Base 0.1.4
 _ZNK21ZigbeeClusterDoorLock10metaObjectEv@Base 0.1.4
 _ZNK21ZigbeeClusterDoorLock9doorStateEv@Base 0.1.4
 _ZNK21ZigbeeClusterDoorLock9lockStateEv@Base 0.1.4
 _ZNK21ZigbeeClusterIdentify10metaObjectEv@Base 0.1.4
 _ZNK21ZigbeeInterfaceDeconz10metaObjectEv@Base 0.1.4
 _ZNK21ZigbeeInterfaceDeconz10serialPortEv@Base 0.1.4
 _ZNK21ZigbeeInterfaceDeconz9availableEv@Base 0.1.4
 _ZNK21ZigbeeNetworkDatabase10metaObjectEv@Base 0.1.4
 _ZNK21ZigbeeNetworkDatabase12databaseNameEv@Base 0.1.4
 _ZNK22ZigbeeBridgeController10metaObjectEv@Base 0.1.4
 _ZNK22ZigbeeBridgeController13updateRunningEv@Base 0.1.4
 _ZNK22ZigbeeBridgeController15firmwareVersionEv@Base 0.1.4
 _ZNK22ZigbeeBridgeController16initiallyFlashedEv@Base 0.1.4
 _ZNK22ZigbeeBridgeController21updateFirmwareVersionEv@Base 0.1.4
 _ZNK22ZigbeeBridgeController9availableEv@Base 0.1.4
 _ZNK22ZigbeeBridgeController9canUpdateEv@Base 0.1.4
 _ZNK22ZigbeeClusterAttribute2idEv@Base 0.1.4
 _ZNK22ZigbeeClusterAttribute7isValidEv@Base 0.1.4
 _ZNK22ZigbeeClusterAttribute8dataTypeEv@Base 0.1.4
 _ZNK22ZigbeeClusterAttributeeqERKS_@Base 0.1.4
 _ZNK22ZigbeeClusterAttributeneERKS_@Base 0.1.4
 _ZNK23ZigbeeClusterThermostat10metaObjectEv@Base 0.1.4
 _ZNK23ZigbeeDeviceObjectReply10isCompleteEv@Base 0.1.4
 _ZNK23ZigbeeDeviceObjectReply10metaObjectEv@Base 0.1.4
 _ZNK23ZigbeeDeviceObjectReply12responseAdpuEv@Base 0.1.4
 _ZNK23ZigbeeDeviceObjectReply12responseDataEv@Base 0.1.4
 _ZNK23ZigbeeDeviceObjectReply15zigbeeApsStatusEv@Base 0.1.4
 _ZNK23ZigbeeDeviceObjectReply15zigbeeMacStatusEv@Base 0.1.4
 _ZNK23ZigbeeDeviceObjectReply15zigbeeNwkStatusEv@Base 0.1.4
 _ZNK23ZigbeeDeviceObjectReply16expectedResponseEv@Base 0.1.4
 _ZNK23ZigbeeDeviceObjectReply24zigbeeDeviceObjectStatusEv@Base 0.1.4
 _ZNK23ZigbeeDeviceObjectReply25transactionSequenceNumberEv@Base 0.1.4
 _ZNK23ZigbeeDeviceObjectReply5errorEv@Base 0.1.4
 _ZNK23ZigbeeDeviceObjectReply7requestEv@Base 0.1.4
 _ZNK23ZigbeeInterfaceNxpReply10metaObjectEv@Base 0.1.4
 _ZNK23ZigbeeInterfaceNxpReply11requestDataEv@Base 0.1.4
 _ZNK23ZigbeeInterfaceNxpReply12responseDataEv@Base 0.1.4
 _ZNK23ZigbeeInterfaceNxpReply14networkRequestEv@Base 0.1.4
 _ZNK23ZigbeeInterfaceNxpReply14sequenceNumberEv@Base 0.1.4
 _ZNK23ZigbeeInterfaceNxpReply6statusEv@Base 0.1.4
 _ZNK23ZigbeeInterfaceNxpReply7abortedEv@Base 0.1.4
 _ZNK23ZigbeeInterfaceNxpReply7commandEv@Base 0.1.4
 _ZNK23ZigbeeInterfaceNxpReply9timendOutEv@Base 0.1.4
 _ZNK24FirmwareUpdateHandlerNxp10metaObjectEv@Base 0.1.4
 _ZNK24FirmwareUpdateHandlerNxp13updateRunningEv@Base 0.1.4
 _ZNK24FirmwareUpdateHandlerNxp16initiallyFlashedEv@Base 0.1.4
 _ZNK24FirmwareUpdateHandlerNxp24availableFirmwareVersionEv@Base 0.1.4
 _ZNK24FirmwareUpdateHandlerNxp25availableFirmwareFileNameEv@Base 0.1.4
 _ZNK24FirmwareUpdateHandlerNxp7isValidEv@Base 0.1.4
 _ZNK24ZigbeeClusterAnalogInput10metaObjectEv@Base 0.1.4
 _ZNK24ZigbeeClusterAnalogValue10metaObjectEv@Base 0.1.4
 _ZNK24ZigbeeClusterBinaryInput10metaObjectEv@Base 0.1.4
 _ZNK24ZigbeeClusterBinaryInput12presentValueEv@Base 0.1.4
 _ZNK24ZigbeeClusterBinaryValue10metaObjectEv@Base 0.1.4
 _ZNK24ZigbeeUartAdapterMonitor10hasAdapterERK7QString@Base 0.1.4
 _ZNK24ZigbeeUartAdapterMonitor10metaObjectEv@Base 0.1.4
 _ZNK24ZigbeeUartAdapterMonitor17availableAdaptersEv@Base 0.1.4
 _ZNK24ZigbeeUartAdapterMonitor7isValidEv@Base 0.1.4
 _ZNK25ZigbeeBridgeControllerNxp10metaObjectEv@Base 0.1.4
 _ZNK25ZigbeeBridgeControllerNxp15controllerStateEv@Base 0.1.4
 _ZNK25ZigbeeBridgeControllerNxp21updateFirmwareVersionEv@Base 0.1.4
 _ZNK25ZigbeeClusterAnalogOutput10metaObjectEv@Base 0.1.4
 _ZNK25ZigbeeClusterBinaryOutput10metaObjectEv@Base 0.1.4
 _ZNK25ZigbeeClusterColorControl10metaObjectEv@Base 0.1.4
 _ZNK25ZigbeeClusterColorControl17colorCapabilitiesEv@Base 0.1.4
 _ZNK25ZigbeeClusterColorControl22colorTemperatureMiredsEv@Base 0.1.4
 _ZNK25ZigbeeClusterLevelControl10metaObjectEv@Base 0.1.4
 _ZNK25ZigbeeClusterLevelControl12currentLevelEv@Base 0.1.4
 _ZNK26ZigbeeInterfaceDeconzReply10metaObjectEv@Base 0.1.4
 _ZNK26ZigbeeInterfaceDeconzReply10statusCodeEv@Base 0.1.4
 _ZNK26ZigbeeInterfaceDeconzReply11requestDataEv@Base 0.1.4
 _ZNK26ZigbeeInterfaceDeconzReply12responseDataEv@Base 0.1.4
 _ZNK26ZigbeeInterfaceDeconzReply14networkRequestEv@Base 0.1.4
 _ZNK26ZigbeeInterfaceDeconzReply14sequenceNumberEv@Base 0.1.4
 _ZNK26ZigbeeInterfaceDeconzReply7abortedEv@Base 0.1.4
 _ZNK26ZigbeeInterfaceDeconzReply7commandEv@Base 0.1.4
 _ZNK26ZigbeeInterfaceDeconzReply9timendOutEv@Base 0.1.4
 _ZNK27ZigbeeSecurityConfiguration10networkKeyEv@Base 0.1.4
 _ZNK27ZigbeeSecurityConfiguration18zigbeeSecurityModeEv@Base 0.1.4
 _ZNK27ZigbeeSecurityConfiguration24globalTrustCenterLinkKeyEv@Base 0.1.4
 _ZNK27ZigbeeSecurityConfigurationeqERKS_@Base 0.1.4
 _ZNK27ZigbeeSecurityConfigurationneERKS_@Base 0.1.4
 _ZNK28ZigbeeBridgeControllerDeconz10metaObjectEv@Base 0.1.4
 _ZNK28ZigbeeBridgeControllerDeconz12networkStateEv@Base 0.1.4
 _ZNK28ZigbeeBridgeControllerDeconz20networkConfigurationEv@Base 0.1.4
 _ZNK28ZigbeeClusterMultistateInput10metaObjectEv@Base 0.1.4
 _ZNK28ZigbeeClusterMultistateValue10metaObjectEv@Base 0.1.4
 _ZNK29ZigbeeClusterMultistateOutput10metaObjectEv@Base 0.1.4
 _ZNK29ZigbeeClusterOccupancySensing10metaObjectEv@Base 0.1.4
 _ZNK29ZigbeeClusterOccupancySensing8occupiedEv@Base 0.1.4
 _ZNK31ZigbeeClusterPowerConfiguration10metaObjectEv@Base 0.1.4
 _ZNK31ZigbeeClusterPowerConfiguration17batteryPercentageEv@Base 0.1.4
 _ZNK32ZigbeeClusterPressureMeasurement10metaObjectEv@Base 0.1.4
 _ZNK32ZigbeeClusterPressureMeasurement14pressureScaledEv@Base 0.1.4
 _ZNK32ZigbeeClusterPressureMeasurement8pressureEv@Base 0.1.4
 _ZNK34ZigbeeClusterIlluminanceMeasurment10metaObjectEv@Base 0.1.4
 _ZNK34ZigbeeClusterIlluminanceMeasurment11illuminanceEv@Base 0.1.4
 _ZNK35ZigbeeClusterTemperatureMeasurement10metaObjectEv@Base 0.1.4
 _ZNK35ZigbeeClusterTemperatureMeasurement11temperatureEv@Base 0.1.4
 _ZNK40ZigbeeClusterManufacturerSpecificPhilips10metaObjectEv@Base 0.1.4
 _ZNK40ZigbeeClusterRelativeHumidityMeasurement10metaObjectEv@Base 0.1.4
 _ZNK40ZigbeeClusterRelativeHumidityMeasurement8humidityEv@Base 0.1.4
 _ZTI10ZigbeeAdpu@Base 0.1.4
 _ZTI10ZigbeeNode@Base 0.1.4
 _ZTI11ZigbeeReply@Base 0.1.4
 _ZTI13ZigbeeCluster@Base 0.1.4
 _ZTI13ZigbeeNetwork@Base 0.1.4
 _ZTI16ZigbeeClusterOta@Base 0.1.4
 _ZTI16ZigbeeNetworkNxp@Base 0.1.4
 _ZTI18ZigbeeClusterBasic@Base 0.1.4
 _ZTI18ZigbeeClusterOnOff@Base 0.1.4
 _ZTI18ZigbeeClusterReply@Base 0.1.4
 _ZTI18ZigbeeDeviceObject@Base 0.1.4
 _ZTI18ZigbeeInterfaceNxp@Base 0.1.4
 _ZTI18ZigbeeNetworkReply@Base 0.1.4
 _ZTI18ZigbeeNodeEndpoint@Base 0.1.4
 _ZTI19ZigbeeClusterGroups@Base 0.1.4
 _ZTI19ZigbeeClusterScenes@Base 0.1.4
 _ZTI19ZigbeeNetworkDeconz@Base 0.1.4
 _ZTI20ZigbeeClusterIasZone@Base 0.1.4
 _ZTI21ZigbeeClusterDoorLock@Base 0.1.4
 _ZTI21ZigbeeClusterIdentify@Base 0.1.4
 _ZTI21ZigbeeInterfaceDeconz@Base 0.1.4
 _ZTI21ZigbeeNetworkDatabase@Base 0.1.4
 _ZTI22ZigbeeBridgeController@Base 0.1.4
 _ZTI23ZigbeeClusterThermostat@Base 0.1.4
 _ZTI23ZigbeeDeviceObjectReply@Base 0.1.4
 _ZTI23ZigbeeInterfaceNxpReply@Base 0.1.4
 _ZTI24FirmwareUpdateHandlerNxp@Base 0.1.4
 _ZTI24ZigbeeClusterAnalogInput@Base 0.1.4
 _ZTI24ZigbeeClusterAnalogValue@Base 0.1.4
 _ZTI24ZigbeeClusterBinaryInput@Base 0.1.4
 _ZTI24ZigbeeClusterBinaryValue@Base 0.1.4
 _ZTI24ZigbeeUartAdapterMonitor@Base 0.1.4
 _ZTI25ZigbeeBridgeControllerNxp@Base 0.1.4
 _ZTI25ZigbeeClusterAnalogOutput@Base 0.1.4
 _ZTI25ZigbeeClusterBinaryOutput@Base 0.1.4
 _ZTI25ZigbeeClusterColorControl@Base 0.1.4
 _ZTI25ZigbeeClusterLevelControl@Base 0.1.4
 _ZTI26ZigbeeInterfaceDeconzReply@Base 0.1.4
 _ZTI28ZigbeeBridgeControllerDeconz@Base 0.1.4
 _ZTI28ZigbeeClusterMultistateInput@Base 0.1.4
 _ZTI28ZigbeeClusterMultistateValue@Base 0.1.4
 _ZTI29ZigbeeClusterMultistateOutput@Base 0.1.4
 _ZTI29ZigbeeClusterOccupancySensing@Base 0.1.4
 _ZTI31ZigbeeClusterPowerConfiguration@Base 0.1.4
 _ZTI32ZigbeeClusterPressureMeasurement@Base 0.1.4
 _ZTI34ZigbeeClusterIlluminanceMeasurment@Base 0.1.4
 _ZTI35ZigbeeClusterTemperatureMeasurement@Base 0.1.4
 _ZTI40ZigbeeClusterManufacturerSpecificPhilips@Base 0.1.4
 _ZTI40ZigbeeClusterRelativeHumidityMeasurement@Base 0.1.4
 _ZTS10ZigbeeAdpu@Base 0.1.4
 _ZTS10ZigbeeNode@Base 0.1.4
 _ZTS11ZigbeeReply@Base 0.1.4
 _ZTS13ZigbeeCluster@Base 0.1.4
 _ZTS13ZigbeeNetwork@Base 0.1.4
 _ZTS16ZigbeeClusterOta@Base 0.1.4
 _ZTS16ZigbeeNetworkNxp@Base 0.1.4
 _ZTS18ZigbeeClusterBasic@Base 0.1.4
 _ZTS18ZigbeeClusterOnOff@Base 0.1.4
 _ZTS18ZigbeeClusterReply@Base 0.1.4
 _ZTS18ZigbeeDeviceObject@Base 0.1.4
 _ZTS18ZigbeeInterfaceNxp@Base 0.1.4
 _ZTS18ZigbeeNetworkReply@Base 0.1.4
 _ZTS18ZigbeeNodeEndpoint@Base 0.1.4
 _ZTS19ZigbeeClusterGroups@Base 0.1.4
 _ZTS19ZigbeeClusterScenes@Base 0.1.4
 _ZTS19ZigbeeNetworkDeconz@Base 0.1.4
 _ZTS20ZigbeeClusterIasZone@Base 0.1.4
 _ZTS21ZigbeeClusterDoorLock@Base 0.1.4
 _ZTS21ZigbeeClusterIdentify@Base 0.1.4
 _ZTS21ZigbeeInterfaceDeconz@Base 0.1.4
 _ZTS21ZigbeeNetworkDatabase@Base 0.1.4
 _ZTS22ZigbeeBridgeController@Base 0.1.4
 _ZTS23ZigbeeClusterThermostat@Base 0.1.4
 _ZTS23ZigbeeDeviceObjectReply@Base 0.1.4
 _ZTS23ZigbeeInterfaceNxpReply@Base 0.1.4
 _ZTS24FirmwareUpdateHandlerNxp@Base 0.1.4
 _ZTS24ZigbeeClusterAnalogInput@Base 0.1.4
 _ZTS24ZigbeeClusterAnalogValue@Base 0.1.4
 _ZTS24ZigbeeClusterBinaryInput@Base 0.1.4
 _ZTS24ZigbeeClusterBinaryValue@Base 0.1.4
 _ZTS24ZigbeeUartAdapterMonitor@Base 0.1.4
 _ZTS25ZigbeeBridgeControllerNxp@Base 0.1.4
 _ZTS25ZigbeeClusterAnalogOutput@Base 0.1.4
 _ZTS25ZigbeeClusterBinaryOutput@Base 0.1.4
 _ZTS25ZigbeeClusterColorControl@Base 0.1.4
 _ZTS25ZigbeeClusterLevelControl@Base 0.1.4
 _ZTS26ZigbeeInterfaceDeconzReply@Base 0.1.4
 _ZTS28ZigbeeBridgeControllerDeconz@Base 0.1.4
 _ZTS28ZigbeeClusterMultistateInput@Base 0.1.4
 _ZTS28ZigbeeClusterMultistateValue@Base 0.1.4
 _ZTS29ZigbeeClusterMultistateOutput@Base 0.1.4
 _ZTS29ZigbeeClusterOccupancySensing@Base 0.1.4
 _ZTS31ZigbeeClusterPowerConfiguration@Base 0.1.4
 _ZTS32ZigbeeClusterPressureMeasurement@Base 0.1.4
 _ZTS34ZigbeeClusterIlluminanceMeasurment@Base 0.1.4
 _ZTS35ZigbeeClusterTemperatureMeasurement@Base 0.1.4
 _ZTS40ZigbeeClusterManufacturerSpecificPhilips@Base 0.1.4
 _ZTS40ZigbeeClusterRelativeHumidityMeasurement@Base 0.1.4
 _ZTV10ZigbeeAdpu@Base 0.1.4
 _ZTV10ZigbeeNode@Base 0.1.4
 _ZTV11ZigbeeReply@Base 0.1.4
 _ZTV13ZigbeeCluster@Base 0.1.4
 _ZTV13ZigbeeNetwork@Base 0.1.4
 _ZTV16ZigbeeClusterOta@Base 0.1.4
 _ZTV16ZigbeeNetworkNxp@Base 0.1.4
 _ZTV18ZigbeeClusterBasic@Base 0.1.4
 _ZTV18ZigbeeClusterOnOff@Base 0.1.4
 _ZTV18ZigbeeClusterReply@Base 0.1.4
 _ZTV18ZigbeeDeviceObject@Base 0.1.4
 _ZTV18ZigbeeInterfaceNxp@Base 0.1.4
 _ZTV18ZigbeeNetworkReply@Base 0.1.4
 _ZTV18ZigbeeNodeEndpoint@Base 0.1.4
 _ZTV19ZigbeeClusterGroups@Base 0.1.4
 _ZTV19ZigbeeClusterScenes@Base 0.1.4
 _ZTV19ZigbeeNetworkDeconz@Base 0.1.4
 _ZTV20ZigbeeClusterIasZone@Base 0.1.4
 _ZTV21ZigbeeClusterDoorLock@Base 0.1.4
 _ZTV21ZigbeeClusterIdentify@Base 0.1.4
 _ZTV21ZigbeeInterfaceDeconz@Base 0.1.4
 _ZTV21ZigbeeNetworkDatabase@Base 0.1.4
 _ZTV22ZigbeeBridgeController@Base 0.1.4
 _ZTV23ZigbeeClusterThermostat@Base 0.1.4
 _ZTV23ZigbeeDeviceObjectReply@Base 0.1.4
 _ZTV23ZigbeeInterfaceNxpReply@Base 0.1.4
 _ZTV24FirmwareUpdateHandlerNxp@Base 0.1.4
 _ZTV24ZigbeeClusterAnalogInput@Base 0.1.4
 _ZTV24ZigbeeClusterAnalogValue@Base 0.1.4
 _ZTV24ZigbeeClusterBinaryInput@Base 0.1.4
 _ZTV24ZigbeeClusterBinaryValue@Base 0.1.4
 _ZTV24ZigbeeUartAdapterMonitor@Base 0.1.4
 _ZTV25ZigbeeBridgeControllerNxp@Base 0.1.4
 _ZTV25ZigbeeClusterAnalogOutput@Base 0.1.4
 _ZTV25ZigbeeClusterBinaryOutput@Base 0.1.4
 _ZTV25ZigbeeClusterColorControl@Base 0.1.4
 _ZTV25ZigbeeClusterLevelControl@Base 0.1.4
 _ZTV26ZigbeeInterfaceDeconzReply@Base 0.1.4
 _ZTV28ZigbeeBridgeControllerDeconz@Base 0.1.4
 _ZTV28ZigbeeClusterMultistateInput@Base 0.1.4
 _ZTV28ZigbeeClusterMultistateValue@Base 0.1.4
 _ZTV29ZigbeeClusterMultistateOutput@Base 0.1.4
 _ZTV29ZigbeeClusterOccupancySensing@Base 0.1.4
 _ZTV31ZigbeeClusterPowerConfiguration@Base 0.1.4
 _ZTV32ZigbeeClusterPressureMeasurement@Base 0.1.4
 _ZTV34ZigbeeClusterIlluminanceMeasurment@Base 0.1.4
 _ZTV35ZigbeeClusterTemperatureMeasurement@Base 0.1.4
 _ZTV40ZigbeeClusterManufacturerSpecificPhilips@Base 0.1.4
 _ZTV40ZigbeeClusterRelativeHumidityMeasurement@Base 0.1.4
 _ZZN11QMetaTypeIdI17ZigbeeUartAdapterE14qt_metatype_idEvE11metatype_id@Base 0.1.4
 _ZZN11QMetaTypeIdIN11QSerialPort15SerialPortErrorEE14qt_metatype_idEvE11metatype_id@Base 0.1.4
 _ZZN18QMetaTypeIdQObjectIP10ZigbeeNodeLi8EE14qt_metatype_idEvE11metatype_id@Base 0.1.4
 _ZZN18QMetaTypeIdQObjectIP13ZigbeeClusterLi8EE14qt_metatype_idEvE11metatype_id@Base 0.1.4
 _ZZN18QMetaTypeIdQObjectIP18ZigbeeNodeEndpointLi8EE14qt_metatype_idEvE11metatype_id@Base 0.1.4
 _ZZN9QtPrivate15ConnectionTypesINS_4ListIJRK10QByteArrayEEELb1EE5typesEvE1t@Base 0.1.4
 _ZZN9QtPrivate15ConnectionTypesINS_4ListIJRK7QStringEEELb1EE5typesEvE1t@Base 0.1.4
 _ZZN9QtPrivate15ConnectionTypesINS_4ListIJbEEELb1EE5typesEvE1t@Base 0.1.4
 _Zls6QDebugP10ZigbeeNode@Base 0.1.4
 _Zls6QDebugP13ZigbeeCluster@Base 0.1.4
 _Zls6QDebugP13ZigbeeNetwork@Base 0.1.4
 _Zls6QDebugP18ZigbeeNodeEndpoint@Base 0.1.4
 _Zls6QDebugP23ZigbeeInterfaceNxpReply@Base 0.1.4
 _Zls6QDebugP26ZigbeeInterfaceDeconzReply@Base 0.1.4
 _Zls6QDebugRK13ZigbeeAddress@Base 0.1.4
 _Zls6QDebugRK14ZigbeeDataType@Base 0.1.4
 _Zls6QDebugRK16ZigbeeNetworkKey@Base 0.1.4
 _Zls6QDebugRK17DeconzDeviceState@Base 0.1.4
 _Zls6QDebugRK17ZigbeeChannelMask@Base 0.1.4
 _Zls6QDebugRK17ZigbeeUartAdapter@Base 0.1.4
 _Zls6QDebugRK20ZigbeeNetworkRequest@Base 0.1.4
 _Zls6QDebugRK22ZigbeeClusterAttribute@Base 0.1.4
 _Zls6QDebugRK26DeconzNetworkConfiguration@Base 0.1.4
 _Zls6QDebugRK28ZigbeeClusterAttributeReport@Base 0.1.4
 _Zls6QDebugRKN16ZigbeeClusterOta11FileVersionE@Base 0.1.4
 _Zls6QDebugRKN19ZigbeeDeviceProfile10ServerMaskE@Base 0.1.4
 _Zls6QDebugRKN19ZigbeeDeviceProfile14NodeDescriptorE@Base 0.1.4
 _Zls6QDebugRKN19ZigbeeDeviceProfile15MacCapabilitiesE@Base 0.1.4
 _Zls6QDebugRKN19ZigbeeDeviceProfile15PowerDescriptorE@Base 0.1.4
 _Zls6QDebugRKN19ZigbeeDeviceProfile22BindingTableListRecordE@Base 0.1.4
 _Zls6QDebugRKN19ZigbeeDeviceProfile22DescriptorCapabilitiesE@Base 0.1.4
 _Zls6QDebugRKN19ZigbeeDeviceProfile4AdpuE@Base 0.1.4
 _Zls6QDebugRKN20ZigbeeClusterLibrary12FrameControlE@Base 0.1.4
 _Zls6QDebugRKN20ZigbeeClusterLibrary25ReadAttributeStatusRecordE@Base 0.1.4
 _Zls6QDebugRKN20ZigbeeClusterLibrary30AttributeReportingStatusRecordE@Base 0.1.4
 _Zls6QDebugRKN20ZigbeeClusterLibrary31AttributeReportingConfigurationE@Base 0.1.4
 _Zls6QDebugRKN20ZigbeeClusterLibrary5FrameE@Base 0.1.4
 _Zls6QDebugRKN20ZigbeeClusterLibrary6HeaderE@Base 0.1.4
 _Zls6QDebugRKN6Zigbee12ApsdeDataAckE@Base 0.1.4
 _Zls6QDebugRKN6Zigbee16ApsdeDataConfirmE@Base 0.1.4
 _Zls6QDebugRKN6Zigbee19ApsdeDataIndicationE@Base 0.1.4
